

Microchip MPLAB XC8 Assembler V2.32 build 20210201212658 
                                                                                               Wed Aug 11 14:12:27 2021

Microchip MPLAB XC8 C Compiler v2.32 (Free license) build 20210201212658 Og1 
     1                           	processor	16F887
     2                           	pagewidth 120
     3                           	opt	flic
     4                           	psect	strings,global,class=STRING,delta=2,noexec
     5                           	psect	cinit,global,class=CODE,merge=1,delta=2
     6                           	psect	bssCOMMON,global,class=COMMON,space=1,delta=1,noexec
     7                           	psect	bssBANK1,global,class=BANK1,space=1,delta=1,noexec
     8                           	psect	clrtext,global,class=CODE,delta=2
     9                           	psect	cstackBANK1,global,class=BANK1,space=1,delta=1,noexec
    10                           	psect	cstackCOMMON,global,class=COMMON,space=1,delta=1,noexec
    11                           	psect	cstackBANK0,global,class=BANK0,space=1,delta=1,noexec
    12                           	psect	maintext,global,class=CODE,split=1,delta=2
    13                           	psect	text1,local,class=CODE,merge=1,delta=2
    14                           	psect	text2,local,class=CODE,merge=1,delta=2
    15                           	psect	text3,local,class=CODE,merge=1,delta=2,group=1
    16                           	psect	text4,local,class=CODE,merge=1,delta=2
    17                           	psect	text5,local,class=CODE,merge=1,delta=2,group=1
    18                           	psect	text6,local,class=CODE,merge=1,delta=2
    19                           	psect	text7,local,class=CODE,merge=1,delta=2
    20                           	psect	text8,local,class=CODE,merge=1,delta=2
    21                           	psect	text9,local,class=CODE,merge=1,delta=2
    22                           	psect	text10,local,class=CODE,merge=1,delta=2
    23                           	psect	text11,local,class=CODE,merge=1,delta=2
    24                           	psect	text12,local,class=CODE,merge=1,delta=2
    25                           	psect	text13,local,class=CODE,merge=1,delta=2
    26                           	psect	text14,local,class=CODE,merge=1,delta=2
    27                           	psect	text15,local,class=CODE,merge=1,delta=2
    28                           	psect	text16,local,class=CODE,merge=1,delta=2
    29                           	psect	text17,local,class=CODE,merge=1,delta=2
    30                           	psect	text18,local,class=CODE,merge=1,delta=2
    31                           	psect	text19,local,class=CODE,merge=1,delta=2,group=1
    32                           	psect	text20,local,class=CODE,merge=1,delta=2,group=1
    33                           	psect	text21,local,class=CODE,merge=1,delta=2,group=1
    34                           	psect	text22,local,class=CODE,merge=1,delta=2,group=1
    35                           	psect	text23,local,class=CODE,merge=1,delta=2,group=1
    36                           	psect	text24,local,class=CODE,merge=1,delta=2,group=1
    37                           	psect	text25,local,class=CODE,merge=1,delta=2,group=1
    38                           	psect	text26,local,class=CODE,merge=1,delta=2,group=1
    39                           	psect	text27,local,class=CODE,merge=1,delta=2,group=1
    40                           	psect	text28,local,class=CODE,merge=1,delta=2,group=1
    41                           	psect	text29,local,class=CODE,merge=1,delta=2
    42                           	psect	intentry,global,class=CODE,delta=2
    43                           	psect	config,global,abs,ovrld,class=CONFIG,space=4,delta=2,noexec
    44                           	dabs	1,0x7E,2
    45  0000                     
    46                           ; Version 2.20
    47                           ; Generated 12/02/2020 GMT
    48                           ; 
    49                           ; Copyright © 2020, Microchip Technology Inc. and its subsidiaries ("Microchip")
    50                           ; All rights reserved.
    51                           ; 
    52                           ; This software is developed by Microchip Technology Inc. and its subsidiaries ("Microch
      +                          ip").
    53                           ; 
    54                           ; Redistribution and use in source and binary forms, with or without modification, are
    55                           ; permitted provided that the following conditions are met:
    56                           ; 
    57                           ;     1. Redistributions of source code must retain the above copyright notice, this lis
      +                          t of
    58                           ;        conditions and the following disclaimer.
    59                           ; 
    60                           ;     2. Redistributions in binary form must reproduce the above copyright notice, this 
      +                          list
    61                           ;        of conditions and the following disclaimer in the documentation and/or other
    62                           ;        materials provided with the distribution.
    63                           ; 
    64                           ;     3. Microchip's name may not be used to endorse or promote products derived from th
      +                          is
    65                           ;        software without specific prior written permission.
    66                           ; 
    67                           ; THIS SOFTWARE IS PROVIDED BY MICROCHIP "AS IS" AND ANY EXPRESS OR IMPLIED WARRANTIES,
    68                           ; INCLUDING, BUT NOT LIMITED TO, THE IMPLIED WARRANTIES OF MERCHANTABILITY AND FITNESS F
      +                          OR
    69                           ; PURPOSE ARE DISCLAIMED.  IN NO EVENT SHALL MICROCHIP BE LIABLE FOR ANY DIRECT, INDIREC
      +                          T,
    70                           ; INCIDENTAL, SPECIAL, EXEMPLARY, OR CONSEQUENTIAL DAMAGES (INCLUDING BUT NOT LIMITED TO
    71                           ; PROCUREMENT OF SUBSTITUTE GOODS OR SERVICES; LOSS OF USE, DATA OR PROFITS; OR BUSINESS
    72                           ; INTERRUPTION) HOWSOEVER CAUSED AND ON ANY THEORY OF LIABILITY, WHETHER IN CONTRACT, ST
      +                          RICT
    73                           ; LIABILITY, OR TORT (INCLUDING NEGLIGENCE OR OTHERWISE) ARISING IN ANY WAY OUT OF THE U
      +                          SE OF
    74                           ; THIS SOFTWARE, EVEN IF ADVISED OF THE POSSIBILITY OF SUCH DAMAGE.
    75                           ; 
    76                           ; 
    77                           ; Code-generator required, PIC16F887 Definitions
    78                           ; 
    79                           ; SFR Addresses
    80  0000                     	;# 
    81  0001                     	;# 
    82  0002                     	;# 
    83  0003                     	;# 
    84  0004                     	;# 
    85  0005                     	;# 
    86  0006                     	;# 
    87  0007                     	;# 
    88  0008                     	;# 
    89  0009                     	;# 
    90  000A                     	;# 
    91  000B                     	;# 
    92  000C                     	;# 
    93  000D                     	;# 
    94  000E                     	;# 
    95  000E                     	;# 
    96  000F                     	;# 
    97  0010                     	;# 
    98  0011                     	;# 
    99  0012                     	;# 
   100  0013                     	;# 
   101  0014                     	;# 
   102  0015                     	;# 
   103  0015                     	;# 
   104  0016                     	;# 
   105  0017                     	;# 
   106  0018                     	;# 
   107  0019                     	;# 
   108  001A                     	;# 
   109  001B                     	;# 
   110  001B                     	;# 
   111  001C                     	;# 
   112  001D                     	;# 
   113  001E                     	;# 
   114  001F                     	;# 
   115  0081                     	;# 
   116  0085                     	;# 
   117  0086                     	;# 
   118  0087                     	;# 
   119  0088                     	;# 
   120  0089                     	;# 
   121  008C                     	;# 
   122  008D                     	;# 
   123  008E                     	;# 
   124  008F                     	;# 
   125  0090                     	;# 
   126  0091                     	;# 
   127  0092                     	;# 
   128  0093                     	;# 
   129  0093                     	;# 
   130  0093                     	;# 
   131  0094                     	;# 
   132  0095                     	;# 
   133  0096                     	;# 
   134  0097                     	;# 
   135  0098                     	;# 
   136  0099                     	;# 
   137  009A                     	;# 
   138  009B                     	;# 
   139  009C                     	;# 
   140  009D                     	;# 
   141  009E                     	;# 
   142  009F                     	;# 
   143  0105                     	;# 
   144  0107                     	;# 
   145  0108                     	;# 
   146  0109                     	;# 
   147  010C                     	;# 
   148  010C                     	;# 
   149  010D                     	;# 
   150  010E                     	;# 
   151  010F                     	;# 
   152  0185                     	;# 
   153  0187                     	;# 
   154  0188                     	;# 
   155  0189                     	;# 
   156  018C                     	;# 
   157  018D                     	;# 
   158  0000                     	;# 
   159  0001                     	;# 
   160  0002                     	;# 
   161  0003                     	;# 
   162  0004                     	;# 
   163  0005                     	;# 
   164  0006                     	;# 
   165  0007                     	;# 
   166  0008                     	;# 
   167  0009                     	;# 
   168  000A                     	;# 
   169  000B                     	;# 
   170  000C                     	;# 
   171  000D                     	;# 
   172  000E                     	;# 
   173  000E                     	;# 
   174  000F                     	;# 
   175  0010                     	;# 
   176  0011                     	;# 
   177  0012                     	;# 
   178  0013                     	;# 
   179  0014                     	;# 
   180  0015                     	;# 
   181  0015                     	;# 
   182  0016                     	;# 
   183  0017                     	;# 
   184  0018                     	;# 
   185  0019                     	;# 
   186  001A                     	;# 
   187  001B                     	;# 
   188  001B                     	;# 
   189  001C                     	;# 
   190  001D                     	;# 
   191  001E                     	;# 
   192  001F                     	;# 
   193  0081                     	;# 
   194  0085                     	;# 
   195  0086                     	;# 
   196  0087                     	;# 
   197  0088                     	;# 
   198  0089                     	;# 
   199  008C                     	;# 
   200  008D                     	;# 
   201  008E                     	;# 
   202  008F                     	;# 
   203  0090                     	;# 
   204  0091                     	;# 
   205  0092                     	;# 
   206  0093                     	;# 
   207  0093                     	;# 
   208  0093                     	;# 
   209  0094                     	;# 
   210  0095                     	;# 
   211  0096                     	;# 
   212  0097                     	;# 
   213  0098                     	;# 
   214  0099                     	;# 
   215  009A                     	;# 
   216  009B                     	;# 
   217  009C                     	;# 
   218  009D                     	;# 
   219  009E                     	;# 
   220  009F                     	;# 
   221  0105                     	;# 
   222  0107                     	;# 
   223  0108                     	;# 
   224  0109                     	;# 
   225  010C                     	;# 
   226  010C                     	;# 
   227  010D                     	;# 
   228  010E                     	;# 
   229  010F                     	;# 
   230  0185                     	;# 
   231  0187                     	;# 
   232  0188                     	;# 
   233  0189                     	;# 
   234  018C                     	;# 
   235  018D                     	;# 
   236  0000                     	;# 
   237  0001                     	;# 
   238  0002                     	;# 
   239  0003                     	;# 
   240  0004                     	;# 
   241  0005                     	;# 
   242  0006                     	;# 
   243  0007                     	;# 
   244  0008                     	;# 
   245  0009                     	;# 
   246  000A                     	;# 
   247  000B                     	;# 
   248  000C                     	;# 
   249  000D                     	;# 
   250  000E                     	;# 
   251  000E                     	;# 
   252  000F                     	;# 
   253  0010                     	;# 
   254  0011                     	;# 
   255  0012                     	;# 
   256  0013                     	;# 
   257  0014                     	;# 
   258  0015                     	;# 
   259  0015                     	;# 
   260  0016                     	;# 
   261  0017                     	;# 
   262  0018                     	;# 
   263  0019                     	;# 
   264  001A                     	;# 
   265  001B                     	;# 
   266  001B                     	;# 
   267  001C                     	;# 
   268  001D                     	;# 
   269  001E                     	;# 
   270  001F                     	;# 
   271  0081                     	;# 
   272  0085                     	;# 
   273  0086                     	;# 
   274  0087                     	;# 
   275  0088                     	;# 
   276  0089                     	;# 
   277  008C                     	;# 
   278  008D                     	;# 
   279  008E                     	;# 
   280  008F                     	;# 
   281  0090                     	;# 
   282  0091                     	;# 
   283  0092                     	;# 
   284  0093                     	;# 
   285  0093                     	;# 
   286  0093                     	;# 
   287  0094                     	;# 
   288  0095                     	;# 
   289  0096                     	;# 
   290  0097                     	;# 
   291  0098                     	;# 
   292  0099                     	;# 
   293  009A                     	;# 
   294  009B                     	;# 
   295  009C                     	;# 
   296  009D                     	;# 
   297  009E                     	;# 
   298  009F                     	;# 
   299  0105                     	;# 
   300  0107                     	;# 
   301  0108                     	;# 
   302  0109                     	;# 
   303  010C                     	;# 
   304  010C                     	;# 
   305  010D                     	;# 
   306  010E                     	;# 
   307  010F                     	;# 
   308  0185                     	;# 
   309  0187                     	;# 
   310  0188                     	;# 
   311  0189                     	;# 
   312  018C                     	;# 
   313  018D                     	;# 
   314  0000                     	;# 
   315  0001                     	;# 
   316  0002                     	;# 
   317  0003                     	;# 
   318  0004                     	;# 
   319  0005                     	;# 
   320  0006                     	;# 
   321  0007                     	;# 
   322  0008                     	;# 
   323  0009                     	;# 
   324  000A                     	;# 
   325  000B                     	;# 
   326  000C                     	;# 
   327  000D                     	;# 
   328  000E                     	;# 
   329  000E                     	;# 
   330  000F                     	;# 
   331  0010                     	;# 
   332  0011                     	;# 
   333  0012                     	;# 
   334  0013                     	;# 
   335  0014                     	;# 
   336  0015                     	;# 
   337  0015                     	;# 
   338  0016                     	;# 
   339  0017                     	;# 
   340  0018                     	;# 
   341  0019                     	;# 
   342  001A                     	;# 
   343  001B                     	;# 
   344  001B                     	;# 
   345  001C                     	;# 
   346  001D                     	;# 
   347  001E                     	;# 
   348  001F                     	;# 
   349  0081                     	;# 
   350  0085                     	;# 
   351  0086                     	;# 
   352  0087                     	;# 
   353  0088                     	;# 
   354  0089                     	;# 
   355  008C                     	;# 
   356  008D                     	;# 
   357  008E                     	;# 
   358  008F                     	;# 
   359  0090                     	;# 
   360  0091                     	;# 
   361  0092                     	;# 
   362  0093                     	;# 
   363  0093                     	;# 
   364  0093                     	;# 
   365  0094                     	;# 
   366  0095                     	;# 
   367  0096                     	;# 
   368  0097                     	;# 
   369  0098                     	;# 
   370  0099                     	;# 
   371  009A                     	;# 
   372  009B                     	;# 
   373  009C                     	;# 
   374  009D                     	;# 
   375  009E                     	;# 
   376  009F                     	;# 
   377  0105                     	;# 
   378  0107                     	;# 
   379  0108                     	;# 
   380  0109                     	;# 
   381  010C                     	;# 
   382  010C                     	;# 
   383  010D                     	;# 
   384  010E                     	;# 
   385  010F                     	;# 
   386  0185                     	;# 
   387  0187                     	;# 
   388  0188                     	;# 
   389  0189                     	;# 
   390  018C                     	;# 
   391  018D                     	;# 
   392  0000                     	;# 
   393  0001                     	;# 
   394  0002                     	;# 
   395  0003                     	;# 
   396  0004                     	;# 
   397  0005                     	;# 
   398  0006                     	;# 
   399  0007                     	;# 
   400  0008                     	;# 
   401  0009                     	;# 
   402  000A                     	;# 
   403  000B                     	;# 
   404  000C                     	;# 
   405  000D                     	;# 
   406  000E                     	;# 
   407  000E                     	;# 
   408  000F                     	;# 
   409  0010                     	;# 
   410  0011                     	;# 
   411  0012                     	;# 
   412  0013                     	;# 
   413  0014                     	;# 
   414  0015                     	;# 
   415  0015                     	;# 
   416  0016                     	;# 
   417  0017                     	;# 
   418  0018                     	;# 
   419  0019                     	;# 
   420  001A                     	;# 
   421  001B                     	;# 
   422  001B                     	;# 
   423  001C                     	;# 
   424  001D                     	;# 
   425  001E                     	;# 
   426  001F                     	;# 
   427  0081                     	;# 
   428  0085                     	;# 
   429  0086                     	;# 
   430  0087                     	;# 
   431  0088                     	;# 
   432  0089                     	;# 
   433  008C                     	;# 
   434  008D                     	;# 
   435  008E                     	;# 
   436  008F                     	;# 
   437  0090                     	;# 
   438  0091                     	;# 
   439  0092                     	;# 
   440  0093                     	;# 
   441  0093                     	;# 
   442  0093                     	;# 
   443  0094                     	;# 
   444  0095                     	;# 
   445  0096                     	;# 
   446  0097                     	;# 
   447  0098                     	;# 
   448  0099                     	;# 
   449  009A                     	;# 
   450  009B                     	;# 
   451  009C                     	;# 
   452  009D                     	;# 
   453  009E                     	;# 
   454  009F                     	;# 
   455  0105                     	;# 
   456  0107                     	;# 
   457  0108                     	;# 
   458  0109                     	;# 
   459  010C                     	;# 
   460  010C                     	;# 
   461  010D                     	;# 
   462  010E                     	;# 
   463  010F                     	;# 
   464  0185                     	;# 
   465  0187                     	;# 
   466  0188                     	;# 
   467  0189                     	;# 
   468  018C                     	;# 
   469  018D                     	;# 
   470  0009                     _PORTE	set	9
   471  0007                     _PORTC	set	7
   472  0005                     _PORTA	set	5
   473  0008                     _PORTD	set	8
   474  0006                     _PORTB	set	6
   475  0013                     _SSPBUF	set	19
   476  0014                     _SSPCON	set	20
   477  001F                     _ADCON0bits	set	31
   478  0049                     _RE1	set	73
   479  0048                     _RE0	set	72
   480  003D                     _RC5	set	61
   481  0038                     _RC0	set	56
   482  0039                     _RC1	set	57
   483  003A                     _RC2	set	58
   484  0063                     _SSPIF	set	99
   485  005E                     _PEIE	set	94
   486  005F                     _GIE	set	95
   487  008F                     _OSCCONbits	set	143
   488  0089                     _TRISEbits	set	137
   489  0087                     _TRISC	set	135
   490  0088                     _TRISD	set	136
   491  0086                     _TRISB	set	134
   492  0085                     _TRISAbits	set	133
   493  0091                     _SSPCON2bits	set	145
   494  0087                     _TRISCbits	set	135
   495  0094                     _SSPSTAT	set	148
   496  0093                     _SSPADD	set	147
   497  0091                     _SSPCON2	set	145
   498  009F                     _ADCON1bits	set	159
   499  0463                     _SSPIE	set	1123
   500  043C                     _TRISC4	set	1084
   501  043B                     _TRISC3	set	1083
   502  0189                     _ANSELH	set	393
   503  0188                     _ANSEL	set	392
   504                           
   505                           	psect	strings
   506  07E1                     __pstrings:
   507  07E1                     stringtab:
   508  07E1                     __stringtab:
   509                           
   510                           ;	String table - string pointers are 1 byte each
   511  07E1  1BFF               	btfsc	btemp+1,7
   512  07E2  2FEB               	ljmp	stringcode
   513  07E3  1383               	bcf	3,7
   514  07E4  187F               	btfsc	btemp+1,0
   515  07E5  1783               	bsf	3,7
   516  07E6  0800               	movf	0,w
   517  07E7  0A84               	incf	4,f
   518  07E8  1903               	skipnz
   519  07E9  0AFF               	incf	btemp+1,f
   520  07EA  0008               	return
   521  07EB                     stringcode:
   522  07EB                     stringdir:
   523  07EB  3007               	movlw	high stringdir
   524  07EC  008A               	movwf	10
   525  07ED  0804               	movf	4,w
   526  07EE  0A84               	incf	4,f
   527  07EF  0782               	addwf	2,f
   528  07F0                     __stringbase:
   529  07F0  3400               	retlw	0
   530  07F1                     __end_of__stringtab:
   531  07F1                     STR_1:
   532  07F1  3453               	retlw	83	;'S'
   533  07F2  3431               	retlw	49	;'1'
   534  07F3  3400               	retlw	0
   535  07F4                     STR_2:
   536  07F4  3453               	retlw	83	;'S'
   537  07F5  3432               	retlw	50	;'2'
   538  07F6  3400               	retlw	0
   539  07F7                     STR_3:
   540  07F7  3453               	retlw	83	;'S'
   541  07F8  3433               	retlw	51	;'3'
   542  07F9  3400               	retlw	0
   543  07FA                     STR_5:
   544  07FA  3427               	retlw	39	;'''
   545  07FB  3400               	retlw	0
   546  07FC                     STR_4:
   547  07FC  3456               	retlw	86	;'V'
   548  07FD  3400               	retlw	0
   549                           
   550                           	psect	cinit
   551  000F                     start_initialization:	
   552                           ; #config settings
   553                           
   554  000F                     __initialization:
   555                           
   556                           ; Clear objects allocated to COMMON
   557  000F  01FA               	clrf	__pbssCOMMON& (0+127)
   558  0010  01FB               	clrf	(__pbssCOMMON+1)& (0+127)
   559                           
   560                           ; Clear objects allocated to BANK1
   561  0011  1383               	bcf	3,7	;select IRP bank0
   562  0012  30A0               	movlw	low __pbssBANK1
   563  0013  0084               	movwf	4
   564  0014  30D3               	movlw	low (__pbssBANK1+51)
   565  0015  160A  118A  225C  120A  118A  	fcall	clear_ram0
   566  001A                     end_of_initialization:	
   567                           ;End of C runtime variable initialization code
   568                           
   569  001A                     __end_of__initialization:
   570  001A  0183               	clrf	3
   571  001B  120A  158A  2CE8   	ljmp	_main	;jump to C main() function
   572                           
   573                           	psect	bssCOMMON
   574  007A                     __pbssCOMMON:
   575  007A                     _residuo:
   576  007A                     	ds	1
   577  007B                     _valor:
   578  007B                     	ds	1
   579                           
   580                           	psect	bssBANK1
   581  00A0                     __pbssBANK1:
   582  00A0                     _conv1:
   583  00A0                     	ds	4
   584  00A4                     _conv0:
   585  00A4                     	ds	4
   586  00A8                     _count:
   587  00A8                     	ds	4
   588  00AC                     _full:
   589  00AC                     	ds	2
   590  00AE                     _units:
   591  00AE                     	ds	1
   592  00AF                     _tens:
   593  00AF                     	ds	1
   594  00B0                     _hundreds:
   595  00B0                     	ds	1
   596  00B1                     _converted02:
   597  00B1                     	ds	1
   598  00B2                     _converted:
   599  00B2                     	ds	1
   600  00B3                     _pot:
   601  00B3                     	ds	1
   602  00B4                     _temperature:
   603  00B4                     	ds	1
   604  00B5                     _cont:
   605  00B5                     	ds	10
   606  00BF                     _adc1:
   607  00BF                     	ds	10
   608  00C9                     _adc0:
   609  00C9                     	ds	10
   610                           
   611                           	psect	clrtext
   612  125C                     clear_ram0:	
   613                           ;	Called with FSR containing the base address, and
   614                           ;	W with the last address+1
   615                           
   616  125C  0064               	clrwdt	;clear the watchdog before getting into this loop
   617  125D                     clrloop0:
   618  125D  0180               	clrf	0	;clear RAM location pointed to by FSR
   619  125E  0A84               	incf	4,f	;increment pointer
   620  125F  0604               	xorwf	4,w	;XOR with final address
   621  1260  1903               	btfsc	3,2	;have we reached the end yet?
   622  1261  3400               	retlw	0	;all done for this memory range, return
   623  1262  0604               	xorwf	4,w	;XOR again to restore value
   624  1263  2A5D               	goto	clrloop0	;do the next byte
   625                           
   626                           	psect	cstackBANK1
   627  00D3                     __pcstackBANK1:
   628  00D3                     ?_ADC_convert:
   629  00D3                     ADC_convert@a:	
   630                           ; 1 bytes @ 0x0
   631                           
   632                           
   633                           ; 4 bytes @ 0x0
   634  00D3                     	ds	4
   635  00D7                     ADC_convert@place:
   636                           
   637                           ; 2 bytes @ 0x4
   638  00D7                     	ds	2
   639  00D9                     ADC_convert@temp:
   640                           
   641                           ; 2 bytes @ 0x6
   642  00D9                     	ds	2
   643  00DB                     ADC_convert@j:
   644                           
   645                           ; 2 bytes @ 0x8
   646  00DB                     	ds	2
   647  00DD                     ADC_convert@data:
   648                           
   649                           ; 1 bytes @ 0xA
   650  00DD                     	ds	1
   651  00DE                     ADC_convert@x:
   652                           
   653                           ; 4 bytes @ 0xB
   654  00DE                     	ds	4
   655  00E2                     ADC_convert@i:
   656                           
   657                           ; 2 bytes @ 0xF
   658  00E2                     	ds	2
   659  00E4                     ADC_convert@digits:
   660                           
   661                           ; 2 bytes @ 0x11
   662  00E4                     	ds	2
   663  00E6                     ADC_convert@mu:
   664                           
   665                           ; 2 bytes @ 0x13
   666  00E6                     	ds	2
   667  00E8                     ??_main:
   668                           
   669                           ; 1 bytes @ 0x15
   670  00E8                     	ds	4
   671  00EC                     _main$1038:
   672                           
   673                           ; 4 bytes @ 0x19
   674  00EC                     	ds	4
   675                           
   676                           	psect	cstackCOMMON
   677  0070                     __pcstackCOMMON:
   678  0070                     ?_setup:
   679  0070                     ?_division:	
   680                           ; 1 bytes @ 0x0
   681                           
   682  0070                     ?_I2C_Master_Wait:	
   683                           ; 1 bytes @ 0x0
   684                           
   685  0070                     ?_I2C_Master_Start:	
   686                           ; 1 bytes @ 0x0
   687                           
   688  0070                     ?_I2C_Master_Stop:	
   689                           ; 1 bytes @ 0x0
   690                           
   691  0070                     ?_Lcd_Port:	
   692                           ; 1 bytes @ 0x0
   693                           
   694  0070                     ?_Lcd_Cmd:	
   695                           ; 1 bytes @ 0x0
   696                           
   697  0070                     ?_Lcd_Clear:	
   698                           ; 1 bytes @ 0x0
   699                           
   700  0070                     ?_Lcd_Init:	
   701                           ; 1 bytes @ 0x0
   702                           
   703  0070                     ?_Lcd_Write_Char:	
   704                           ; 1 bytes @ 0x0
   705                           
   706  0070                     ?_isr:	
   707                           ; 1 bytes @ 0x0
   708                           
   709  0070                     ??_isr:	
   710                           ; 1 bytes @ 0x0
   711                           
   712  0070                     ?_main:	
   713                           ; 1 bytes @ 0x0
   714                           
   715                           
   716                           ; 1 bytes @ 0x0
   717  0070                     	ds	2
   718  0072                     ?___flge:
   719  0072                     ??_I2C_Master_Wait:	
   720                           ; 1 bit 
   721                           
   722  0072                     ??_I2C_Master_Start:	
   723                           ; 1 bytes @ 0x2
   724                           
   725  0072                     ??_I2C_Master_Stop:	
   726                           ; 1 bytes @ 0x2
   727                           
   728  0072                     ?_I2C_Master_Write:	
   729                           ; 1 bytes @ 0x2
   730                           
   731  0072                     ??_Lcd_Port:	
   732                           ; 1 bytes @ 0x2
   733                           
   734  0072                     ?__Umul8_16:	
   735                           ; 1 bytes @ 0x2
   736                           
   737  0072                     ?_I2C_Master_Read:	
   738                           ; 2 bytes @ 0x2
   739                           
   740  0072                     ?___awdiv:	
   741                           ; 2 bytes @ 0x2
   742                           
   743  0072                     ?___awmod:	
   744                           ; 2 bytes @ 0x2
   745                           
   746  0072                     ?___lldiv:	
   747                           ; 2 bytes @ 0x2
   748                           
   749  0072                     ?___fltol:	
   750                           ; 4 bytes @ 0x2
   751                           
   752  0072                     ?___fladd:	
   753                           ; 4 bytes @ 0x2
   754                           
   755  0072                     Lcd_Port@a:	
   756                           ; 4 bytes @ 0x2
   757                           
   758  0072                     __Umul8_16@multiplicand:	
   759                           ; 1 bytes @ 0x2
   760                           
   761  0072                     I2C_Master_Write@d:	
   762                           ; 1 bytes @ 0x2
   763                           
   764  0072                     I2C_Master_Read@a:	
   765                           ; 2 bytes @ 0x2
   766                           
   767  0072                     ___awdiv@divisor:	
   768                           ; 2 bytes @ 0x2
   769                           
   770  0072                     ___awmod@divisor:	
   771                           ; 2 bytes @ 0x2
   772                           
   773  0072                     ___lldiv@divisor:	
   774                           ; 2 bytes @ 0x2
   775                           
   776  0072                     ___flge@ff1:	
   777                           ; 4 bytes @ 0x2
   778                           
   779  0072                     ___fltol@f1:	
   780                           ; 4 bytes @ 0x2
   781                           
   782  0072                     ___fladd@b:	
   783                           ; 4 bytes @ 0x2
   784                           
   785                           
   786                           ; 4 bytes @ 0x2
   787  0072                     	ds	1
   788  0073                     ??_Lcd_Cmd:
   789  0073                     ??_Lcd_Write_Char:	
   790                           ; 1 bytes @ 0x3
   791                           
   792                           
   793                           ; 1 bytes @ 0x3
   794  0073                     	ds	1
   795  0074                     ??__Umul8_16:
   796  0074                     ??_I2C_Master_Write:	
   797                           ; 1 bytes @ 0x4
   798                           
   799  0074                     ??_I2C_Master_Read:	
   800                           ; 1 bytes @ 0x4
   801                           
   802  0074                     Lcd_Write_Char@temp:	
   803                           ; 1 bytes @ 0x4
   804                           
   805  0074                     ___awdiv@dividend:	
   806                           ; 1 bytes @ 0x4
   807                           
   808  0074                     ___awmod@dividend:	
   809                           ; 2 bytes @ 0x4
   810                           
   811                           
   812                           ; 2 bytes @ 0x4
   813  0074                     	ds	1
   814  0075                     Lcd_Cmd@a:
   815  0075                     Lcd_Write_Char@y:	
   816                           ; 1 bytes @ 0x5
   817                           
   818                           
   819                           ; 1 bytes @ 0x5
   820  0075                     	ds	1
   821  0076                     ??_Lcd_Clear:
   822  0076                     ?_Lcd_Set_Cursor:	
   823                           ; 1 bytes @ 0x6
   824                           
   825  0076                     ??_Lcd_Init:	
   826                           ; 1 bytes @ 0x6
   827                           
   828  0076                     ??___awdiv:	
   829                           ; 1 bytes @ 0x6
   830                           
   831  0076                     ??___awmod:	
   832                           ; 1 bytes @ 0x6
   833                           
   834  0076                     Lcd_Set_Cursor@b:	
   835                           ; 1 bytes @ 0x6
   836                           
   837  0076                     Lcd_Write_Char@a:	
   838                           ; 1 bytes @ 0x6
   839                           
   840  0076                     ___fltol@sign1:	
   841                           ; 1 bytes @ 0x6
   842                           
   843  0076                     I2C_Master_Read@temp:	
   844                           ; 1 bytes @ 0x6
   845                           
   846  0076                     ___lldiv@dividend:	
   847                           ; 2 bytes @ 0x6
   848                           
   849  0076                     ___flge@ff2:	
   850                           ; 4 bytes @ 0x6
   851                           
   852  0076                     ___fladd@a:	
   853                           ; 4 bytes @ 0x6
   854                           
   855                           
   856                           ; 4 bytes @ 0x6
   857  0076                     	ds	1
   858  0077                     ??_Lcd_Set_Cursor:
   859  0077                     ?_Lcd_Write_String:	
   860                           ; 1 bytes @ 0x7
   861                           
   862  0077                     ___awmod@counter:	
   863                           ; 1 bytes @ 0x7
   864                           
   865  0077                     ___fltol@exp1:	
   866                           ; 1 bytes @ 0x7
   867                           
   868  0077                     Lcd_Write_String@a:	
   869                           ; 1 bytes @ 0x7
   870                           
   871                           
   872                           ; 2 bytes @ 0x7
   873  0077                     	ds	1
   874  0078                     ??___wmul:
   875  0078                     ___awmod@sign:	
   876                           ; 1 bytes @ 0x8
   877                           
   878  0078                     ___wmul@product:	
   879                           ; 1 bytes @ 0x8
   880                           
   881                           
   882                           ; 2 bytes @ 0x8
   883  0078                     	ds	1
   884  0079                     division@valor:
   885                           
   886                           ; 1 bytes @ 0x9
   887  0079                     	ds	1
   888  007A                     ??_setup:
   889  007A                     ??___flsub:	
   890                           ; 1 bytes @ 0xA
   891                           
   892                           
   893                           	psect	cstackBANK0
   894  0020                     __pcstackBANK0:	
   895                           ; 1 bytes @ 0xA
   896                           
   897  0020                     ??_Lcd_Write_String:
   898  0020                     ??___lldiv:	
   899                           ; 1 bytes @ 0x0
   900                           
   901  0020                     ??___flge:	
   902                           ; 1 bytes @ 0x0
   903                           
   904  0020                     ??___fltol:	
   905                           ; 1 bytes @ 0x0
   906                           
   907  0020                     ??___fladd:	
   908                           ; 1 bytes @ 0x0
   909                           
   910  0020                     Lcd_Set_Cursor@a:	
   911                           ; 1 bytes @ 0x0
   912                           
   913  0020                     ___awdiv@counter:	
   914                           ; 1 bytes @ 0x0
   915                           
   916  0020                     __Umul8_16@product:	
   917                           ; 1 bytes @ 0x0
   918                           
   919                           
   920                           ; 2 bytes @ 0x0
   921  0020                     	ds	1
   922  0021                     Lcd_Set_Cursor@z:
   923  0021                     ___awdiv@sign:	
   924                           ; 1 bytes @ 0x1
   925                           
   926  0021                     ___lldiv@quotient:	
   927                           ; 1 bytes @ 0x1
   928                           
   929                           
   930                           ; 4 bytes @ 0x1
   931  0021                     	ds	1
   932  0022                     Lcd_Set_Cursor@y:
   933  0022                     ___awdiv@quotient:	
   934                           ; 1 bytes @ 0x2
   935                           
   936  0022                     __Umul8_16@word_mpld:	
   937                           ; 2 bytes @ 0x2
   938                           
   939                           
   940                           ; 2 bytes @ 0x2
   941  0022                     	ds	1
   942  0023                     Lcd_Set_Cursor@temp:
   943  0023                     Lcd_Write_String@i:	
   944                           ; 1 bytes @ 0x3
   945                           
   946                           
   947                           ; 2 bytes @ 0x3
   948  0023                     	ds	1
   949  0024                     ??_division:
   950  0024                     __Umul8_16@multiplier:	
   951                           ; 1 bytes @ 0x4
   952                           
   953                           
   954                           ; 1 bytes @ 0x4
   955  0024                     	ds	1
   956  0025                     ?___wmul:
   957  0025                     ___lldiv@counter:	
   958                           ; 2 bytes @ 0x5
   959                           
   960  0025                     ___wmul@multiplier:	
   961                           ; 1 bytes @ 0x5
   962                           
   963                           
   964                           ; 2 bytes @ 0x5
   965  0025                     	ds	1
   966  0026                     ?_I2C_Master_Init:
   967  0026                     I2C_Master_Init@c:	
   968                           ; 1 bytes @ 0x6
   969                           
   970                           
   971                           ; 4 bytes @ 0x6
   972  0026                     	ds	1
   973  0027                     ___wmul@multiplicand:
   974                           
   975                           ; 2 bytes @ 0x7
   976  0027                     	ds	1
   977  0028                     ___fladd@signs:
   978                           
   979                           ; 1 bytes @ 0x8
   980  0028                     	ds	1
   981  0029                     ?___xxtofl:
   982  0029                     ___fladd@aexp:	
   983                           ; 4 bytes @ 0x9
   984                           
   985  0029                     ___xxtofl@val:	
   986                           ; 1 bytes @ 0x9
   987                           
   988                           
   989                           ; 4 bytes @ 0x9
   990  0029                     	ds	1
   991  002A                     ??_I2C_Master_Init:
   992  002A                     ___fladd@bexp:	
   993                           ; 1 bytes @ 0xA
   994                           
   995                           
   996                           ; 1 bytes @ 0xA
   997  002A                     	ds	1
   998  002B                     ___fladd@grs:
   999                           
  1000                           ; 1 bytes @ 0xB
  1001  002B                     	ds	2
  1002  002D                     ??___xxtofl:
  1003                           
  1004                           ; 1 bytes @ 0xD
  1005  002D                     	ds	4
  1006  0031                     ___xxtofl@sign:
  1007                           
  1008                           ; 1 bytes @ 0x11
  1009  0031                     	ds	1
  1010  0032                     ___xxtofl@exp:
  1011                           
  1012                           ; 1 bytes @ 0x12
  1013  0032                     	ds	1
  1014  0033                     ___xxtofl@arg:
  1015                           
  1016                           ; 4 bytes @ 0x13
  1017  0033                     	ds	4
  1018  0037                     ?___flsub:
  1019  0037                     ?___fldiv:	
  1020                           ; 4 bytes @ 0x17
  1021                           
  1022  0037                     ___flsub@a:	
  1023                           ; 4 bytes @ 0x17
  1024                           
  1025  0037                     ___fldiv@a:	
  1026                           ; 4 bytes @ 0x17
  1027                           
  1028                           
  1029                           ; 4 bytes @ 0x17
  1030  0037                     	ds	4
  1031  003B                     ___flsub@b:
  1032  003B                     ___fldiv@b:	
  1033                           ; 4 bytes @ 0x1B
  1034                           
  1035                           
  1036                           ; 4 bytes @ 0x1B
  1037  003B                     	ds	4
  1038  003F                     ??___fldiv:
  1039                           
  1040                           ; 1 bytes @ 0x1F
  1041  003F                     	ds	5
  1042  0044                     ___fldiv@rem:
  1043                           
  1044                           ; 4 bytes @ 0x24
  1045  0044                     	ds	4
  1046  0048                     ___fldiv@sign:
  1047                           
  1048                           ; 1 bytes @ 0x28
  1049  0048                     	ds	1
  1050  0049                     ___fldiv@new_exp:
  1051                           
  1052                           ; 2 bytes @ 0x29
  1053  0049                     	ds	2
  1054  004B                     ___fldiv@grs:
  1055                           
  1056                           ; 4 bytes @ 0x2B
  1057  004B                     	ds	4
  1058  004F                     ___fldiv@bexp:
  1059                           
  1060                           ; 1 bytes @ 0x2F
  1061  004F                     	ds	1
  1062  0050                     ___fldiv@aexp:
  1063                           
  1064                           ; 1 bytes @ 0x30
  1065  0050                     	ds	1
  1066  0051                     ?___flmul:
  1067  0051                     ___flmul@b:	
  1068                           ; 4 bytes @ 0x31
  1069                           
  1070                           
  1071                           ; 4 bytes @ 0x31
  1072  0051                     	ds	4
  1073  0055                     ___flmul@a:
  1074                           
  1075                           ; 4 bytes @ 0x35
  1076  0055                     	ds	4
  1077  0059                     ??___flmul:
  1078                           
  1079                           ; 1 bytes @ 0x39
  1080  0059                     	ds	5
  1081  005E                     ___flmul@sign:
  1082                           
  1083                           ; 1 bytes @ 0x3E
  1084  005E                     	ds	1
  1085  005F                     ___flmul@aexp:
  1086                           
  1087                           ; 1 bytes @ 0x3F
  1088  005F                     	ds	1
  1089  0060                     ___flmul@grs:
  1090                           
  1091                           ; 4 bytes @ 0x40
  1092  0060                     	ds	4
  1093  0064                     ___flmul@bexp:
  1094                           
  1095                           ; 1 bytes @ 0x44
  1096  0064                     	ds	1
  1097  0065                     ___flmul@prod:
  1098                           
  1099                           ; 4 bytes @ 0x45
  1100  0065                     	ds	4
  1101  0069                     ___flmul@temp:
  1102                           
  1103                           ; 2 bytes @ 0x49
  1104  0069                     	ds	2
  1105  006B                     ??_ADC_convert:
  1106                           
  1107                           ; 1 bytes @ 0x4B
  1108  006B                     	ds	2
  1109                           
  1110                           	psect	maintext
  1111  0CE8                     __pmaintext:	
  1112 ;;
  1113 ;;Main: autosize = 0, tempsize = 4, incstack = 0, save=0
  1114 ;;
  1115 ;; *************** function _main *****************
  1116 ;; Defined at:
  1117 ;;		line 91 in file "lab4.c"
  1118 ;; Parameters:    Size  Location     Type
  1119 ;;		None
  1120 ;; Auto vars:     Size  Location     Type
  1121 ;;		None
  1122 ;; Return value:  Size  Location     Type
  1123 ;;                  1    wreg      void 
  1124 ;; Registers used:
  1125 ;;		wreg, fsr0l, fsr0h, status,2, status,0, btemp+1, pclath, cstack
  1126 ;; Tracked objects:
  1127 ;;		On entry : B00/0
  1128 ;;		On exit  : 0/0
  1129 ;;		Unchanged: 0/0
  1130 ;; Data sizes:     COMMON   BANK0   BANK1   BANK3   BANK2
  1131 ;;      Params:         0       0       0       0       0
  1132 ;;      Locals:         0       0       4       0       0
  1133 ;;      Temps:          0       0       4       0       0
  1134 ;;      Totals:         0       0       8       0       0
  1135 ;;Total ram usage:        8 bytes
  1136 ;; Hardware stack levels required when called: 4
  1137 ;; This function calls:
  1138 ;;		_ADC_convert
  1139 ;;		_I2C_Master_Read
  1140 ;;		_I2C_Master_Start
  1141 ;;		_I2C_Master_Stop
  1142 ;;		_I2C_Master_Write
  1143 ;;		_Lcd_Clear
  1144 ;;		_Lcd_Init
  1145 ;;		_Lcd_Set_Cursor
  1146 ;;		_Lcd_Write_String
  1147 ;;		___fldiv
  1148 ;;		___flmul
  1149 ;;		___fltol
  1150 ;;		___xxtofl
  1151 ;;		_division
  1152 ;;		_setup
  1153 ;; This function is called by:
  1154 ;;		Startup code after reset
  1155 ;; This function uses a non-reentrant model
  1156 ;;
  1157                           
  1158                           
  1159                           ;psect for function _main
  1160  0CE8                     _main:
  1161  0CE8                     l3482:	
  1162                           ;incstack = 0
  1163                           ; Regs used in _main: [wreg-fsr0h+status,2+status,0+btemp+1+pclath+cstack]
  1164                           
  1165                           
  1166                           ;lab4.c: 93:     setup();
  1167  0CE8  160A  118A  234A  120A  158A  	fcall	_setup
  1168                           
  1169                           ;lab4.c: 94:     Lcd_Init();
  1170  0CED  160A  118A  250C  120A  158A  	fcall	_Lcd_Init
  1171                           
  1172                           ;lab4.c: 95:     Lcd_Clear();
  1173  0CF2  160A  118A  228D  120A  158A  	fcall	_Lcd_Clear
  1174  0CF7                     l219:	
  1175                           ;lab4.c: 97:     while(1)
  1176                           
  1177                           
  1178                           ;lab4.c: 98:     {;lab4.c: 102:         I2C_Master_Start();
  1179  0CF7  160A  118A  2264  120A  158A  	fcall	_I2C_Master_Start
  1180                           
  1181                           ;lab4.c: 103:         I2C_Master_Write(0x51);
  1182  0CFC  3051               	movlw	81
  1183  0CFD  00F2               	movwf	I2C_Master_Write@d
  1184  0CFE  3000               	movlw	0
  1185  0CFF  00F3               	movwf	I2C_Master_Write@d+1
  1186  0D00  160A  118A  2276  120A  158A  	fcall	_I2C_Master_Write
  1187                           
  1188                           ;lab4.c: 104:         PORTB = I2C_Master_Read(0);
  1189  0D05  3000               	movlw	0
  1190  0D06  00F2               	movwf	I2C_Master_Read@a
  1191  0D07  00F3               	movwf	I2C_Master_Read@a+1
  1192  0D08  160A  118A  2376  120A  158A  	fcall	_I2C_Master_Read
  1193  0D0D  0872               	movf	?_I2C_Master_Read,w
  1194  0D0E  1283               	bcf	3,5	;RP0=0, select bank0
  1195  0D0F  1303               	bcf	3,6	;RP1=0, select bank0
  1196  0D10  0086               	movwf	6	;volatile
  1197                           
  1198                           ;lab4.c: 105:         I2C_Master_Stop();
  1199  0D11  160A  118A  226D  120A  158A  	fcall	_I2C_Master_Stop
  1200  0D16                     l3484:
  1201                           
  1202                           ;lab4.c: 106:         _delay((unsigned long)((200)*(4000000/4000.0)));
  1203  0D16  3002               	movlw	2
  1204  0D17  1683               	bsf	3,5	;RP0=1, select bank1
  1205  0D18  1303               	bcf	3,6	;RP1=0, select bank1
  1206  0D19  00EA               	movwf	(??_main^(0+128)+2)
  1207  0D1A  3004               	movlw	4
  1208  0D1B  00E9               	movwf	(??_main^(0+128)+1)
  1209  0D1C  30B9               	movlw	185
  1210  0D1D  00E8               	movwf	??_main^(0+128)
  1211  0D1E                     u4877:
  1212  0D1E  0BE8               	decfsz	??_main^(0+128),f
  1213  0D1F  2D1E               	goto	u4877
  1214  0D20  0BE9               	decfsz	(??_main^(0+128)+1),f
  1215  0D21  2D1E               	goto	u4877
  1216  0D22  0BEA               	decfsz	(??_main^(0+128)+2),f
  1217  0D23  2D1E               	goto	u4877
  1218  0D24  2D25               	nop2
  1219  0D25                     l3486:
  1220                           
  1221                           ;lab4.c: 109:         I2C_Master_Start();
  1222  0D25  160A  118A  2264  120A  158A  	fcall	_I2C_Master_Start
  1223  0D2A                     l3488:
  1224                           
  1225                           ;lab4.c: 110:         I2C_Master_Write(0x80);
  1226  0D2A  3080               	movlw	128
  1227  0D2B  00F2               	movwf	I2C_Master_Write@d
  1228  0D2C  3000               	movlw	0
  1229  0D2D  00F3               	movwf	I2C_Master_Write@d+1
  1230  0D2E  160A  118A  2276  120A  158A  	fcall	_I2C_Master_Write
  1231  0D33                     l3490:
  1232                           
  1233                           ;lab4.c: 111:         I2C_Master_Write(0xF3);
  1234  0D33  30F3               	movlw	243
  1235  0D34  00F2               	movwf	I2C_Master_Write@d
  1236  0D35  3000               	movlw	0
  1237  0D36  00F3               	movwf	I2C_Master_Write@d+1
  1238  0D37  160A  118A  2276  120A  158A  	fcall	_I2C_Master_Write
  1239  0D3C                     l3492:
  1240                           
  1241                           ;lab4.c: 112:         I2C_Master_Stop();
  1242  0D3C  160A  118A  226D  120A  158A  	fcall	_I2C_Master_Stop
  1243  0D41                     l3494:
  1244                           
  1245                           ;lab4.c: 113:         _delay((unsigned long)((200)*(4000000/4000.0)));
  1246  0D41  3002               	movlw	2
  1247  0D42  1683               	bsf	3,5	;RP0=1, select bank1
  1248  0D43  1303               	bcf	3,6	;RP1=0, select bank1
  1249  0D44  00EA               	movwf	(??_main^(0+128)+2)
  1250  0D45  3004               	movlw	4
  1251  0D46  00E9               	movwf	(??_main^(0+128)+1)
  1252  0D47  30B9               	movlw	185
  1253  0D48  00E8               	movwf	??_main^(0+128)
  1254  0D49                     u4887:
  1255  0D49  0BE8               	decfsz	??_main^(0+128),f
  1256  0D4A  2D49               	goto	u4887
  1257  0D4B  0BE9               	decfsz	(??_main^(0+128)+1),f
  1258  0D4C  2D49               	goto	u4887
  1259  0D4D  0BEA               	decfsz	(??_main^(0+128)+2),f
  1260  0D4E  2D49               	goto	u4887
  1261  0D4F  2D50               	nop2
  1262                           
  1263                           ;lab4.c: 115:         I2C_Master_Start();
  1264  0D50  160A  118A  2264  120A  158A  	fcall	_I2C_Master_Start
  1265                           
  1266                           ;lab4.c: 116:         I2C_Master_Write(0x81);
  1267  0D55  3081               	movlw	129
  1268  0D56  00F2               	movwf	I2C_Master_Write@d
  1269  0D57  3000               	movlw	0
  1270  0D58  00F3               	movwf	I2C_Master_Write@d+1
  1271  0D59  160A  118A  2276  120A  158A  	fcall	_I2C_Master_Write
  1272                           
  1273                           ;lab4.c: 117:         PORTD = I2C_Master_Read(0);
  1274  0D5E  3000               	movlw	0
  1275  0D5F  00F2               	movwf	I2C_Master_Read@a
  1276  0D60  00F3               	movwf	I2C_Master_Read@a+1
  1277  0D61  160A  118A  2376  120A  158A  	fcall	_I2C_Master_Read
  1278  0D66  0872               	movf	?_I2C_Master_Read,w
  1279  0D67  1283               	bcf	3,5	;RP0=0, select bank0
  1280  0D68  1303               	bcf	3,6	;RP1=0, select bank0
  1281  0D69  0088               	movwf	8	;volatile
  1282                           
  1283                           ;lab4.c: 118:         I2C_Master_Stop();
  1284  0D6A  160A  118A  226D  120A  158A  	fcall	_I2C_Master_Stop
  1285  0D6F                     l3496:
  1286                           
  1287                           ;lab4.c: 119:         _delay((unsigned long)((200)*(4000000/4000.0)));
  1288  0D6F  3002               	movlw	2
  1289  0D70  1683               	bsf	3,5	;RP0=1, select bank1
  1290  0D71  1303               	bcf	3,6	;RP1=0, select bank1
  1291  0D72  00EA               	movwf	(??_main^(0+128)+2)
  1292  0D73  3004               	movlw	4
  1293  0D74  00E9               	movwf	(??_main^(0+128)+1)
  1294  0D75  30B9               	movlw	185
  1295  0D76  00E8               	movwf	??_main^(0+128)
  1296  0D77                     u4897:
  1297  0D77  0BE8               	decfsz	??_main^(0+128),f
  1298  0D78  2D77               	goto	u4897
  1299  0D79  0BE9               	decfsz	(??_main^(0+128)+1),f
  1300  0D7A  2D77               	goto	u4897
  1301  0D7B  0BEA               	decfsz	(??_main^(0+128)+2),f
  1302  0D7C  2D77               	goto	u4897
  1303  0D7D  2D7E               	nop2
  1304  0D7E                     l3498:
  1305                           
  1306                           ;lab4.c: 121:         I2C_Master_Start();
  1307  0D7E  160A  118A  2264  120A  158A  	fcall	_I2C_Master_Start
  1308  0D83                     l3500:
  1309                           
  1310                           ;lab4.c: 122:         I2C_Master_Write(0x91);
  1311  0D83  3091               	movlw	145
  1312  0D84  00F2               	movwf	I2C_Master_Write@d
  1313  0D85  3000               	movlw	0
  1314  0D86  00F3               	movwf	I2C_Master_Write@d+1
  1315  0D87  160A  118A  2276  120A  158A  	fcall	_I2C_Master_Write
  1316  0D8C                     l3502:
  1317                           
  1318                           ;lab4.c: 123:         PORTA = I2C_Master_Read(0);
  1319  0D8C  3000               	movlw	0
  1320  0D8D  00F2               	movwf	I2C_Master_Read@a
  1321  0D8E  00F3               	movwf	I2C_Master_Read@a+1
  1322  0D8F  160A  118A  2376  120A  158A  	fcall	_I2C_Master_Read
  1323  0D94  0872               	movf	?_I2C_Master_Read,w
  1324  0D95  1283               	bcf	3,5	;RP0=0, select bank0
  1325  0D96  1303               	bcf	3,6	;RP1=0, select bank0
  1326  0D97  0085               	movwf	5	;volatile
  1327  0D98                     l3504:
  1328                           
  1329                           ;lab4.c: 124:         I2C_Master_Stop();
  1330  0D98  160A  118A  226D  120A  158A  	fcall	_I2C_Master_Stop
  1331  0D9D                     l3506:
  1332                           
  1333                           ;lab4.c: 125:         _delay((unsigned long)((200)*(4000000/4000.0)));
  1334  0D9D  3002               	movlw	2
  1335  0D9E  1683               	bsf	3,5	;RP0=1, select bank1
  1336  0D9F  1303               	bcf	3,6	;RP1=0, select bank1
  1337  0DA0  00EA               	movwf	(??_main^(0+128)+2)
  1338  0DA1  3004               	movlw	4
  1339  0DA2  00E9               	movwf	(??_main^(0+128)+1)
  1340  0DA3  30B9               	movlw	185
  1341  0DA4  00E8               	movwf	??_main^(0+128)
  1342  0DA5                     u4907:
  1343  0DA5  0BE8               	decfsz	??_main^(0+128),f
  1344  0DA6  2DA5               	goto	u4907
  1345  0DA7  0BE9               	decfsz	(??_main^(0+128)+1),f
  1346  0DA8  2DA5               	goto	u4907
  1347  0DA9  0BEA               	decfsz	(??_main^(0+128)+2),f
  1348  0DAA  2DA5               	goto	u4907
  1349  0DAB  2DAC               	nop2
  1350                           
  1351                           ;lab4.c: 127:         count = PORTA;
  1352  0DAC  1283               	bcf	3,5	;RP0=0, select bank0
  1353  0DAD  1303               	bcf	3,6	;RP1=0, select bank0
  1354  0DAE  0805               	movf	5,w	;volatile
  1355  0DAF  1683               	bsf	3,5	;RP0=1, select bank1
  1356  0DB0  1303               	bcf	3,6	;RP1=0, select bank1
  1357  0DB1  00E8               	movwf	??_main^(0+128)
  1358  0DB2  01E9               	clrf	(??_main^(0+128)+1)
  1359  0DB3  01EA               	clrf	(??_main^(0+128)+2)
  1360  0DB4  01EB               	clrf	(??_main^(0+128)+3)
  1361  0DB5  086B               	movf	(??_main+3)^(0+128),w
  1362  0DB6  1283               	bcf	3,5	;RP0=0, select bank0
  1363  0DB7  1303               	bcf	3,6	;RP1=0, select bank0
  1364  0DB8  00AC               	movwf	___xxtofl@val+3
  1365  0DB9  1683               	bsf	3,5	;RP0=1, select bank1
  1366  0DBA  1303               	bcf	3,6	;RP1=0, select bank1
  1367  0DBB  086A               	movf	(??_main+2)^(0+128),w
  1368  0DBC  1283               	bcf	3,5	;RP0=0, select bank0
  1369  0DBD  1303               	bcf	3,6	;RP1=0, select bank0
  1370  0DBE  00AB               	movwf	___xxtofl@val+2
  1371  0DBF  1683               	bsf	3,5	;RP0=1, select bank1
  1372  0DC0  1303               	bcf	3,6	;RP1=0, select bank1
  1373  0DC1  0869               	movf	(??_main+1)^(0+128),w
  1374  0DC2  1283               	bcf	3,5	;RP0=0, select bank0
  1375  0DC3  1303               	bcf	3,6	;RP1=0, select bank0
  1376  0DC4  00AA               	movwf	___xxtofl@val+1
  1377  0DC5  1683               	bsf	3,5	;RP0=1, select bank1
  1378  0DC6  1303               	bcf	3,6	;RP1=0, select bank1
  1379  0DC7  0868               	movf	??_main^(0+128),w
  1380  0DC8  1283               	bcf	3,5	;RP0=0, select bank0
  1381  0DC9  1303               	bcf	3,6	;RP1=0, select bank0
  1382  0DCA  00A9               	movwf	___xxtofl@val
  1383  0DCB  3000               	movlw	0
  1384  0DCC  160A  118A  2744  120A  158A  	fcall	___xxtofl
  1385  0DD1  1283               	bcf	3,5	;RP0=0, select bank0
  1386  0DD2  1303               	bcf	3,6	;RP1=0, select bank0
  1387  0DD3  082C               	movf	?___xxtofl+3,w
  1388  0DD4  1683               	bsf	3,5	;RP0=1, select bank1
  1389  0DD5  1303               	bcf	3,6	;RP1=0, select bank1
  1390  0DD6  00AB               	movwf	(_count+3)^(0+128)
  1391  0DD7  1283               	bcf	3,5	;RP0=0, select bank0
  1392  0DD8  1303               	bcf	3,6	;RP1=0, select bank0
  1393  0DD9  082B               	movf	?___xxtofl+2,w
  1394  0DDA  1683               	bsf	3,5	;RP0=1, select bank1
  1395  0DDB  1303               	bcf	3,6	;RP1=0, select bank1
  1396  0DDC  00AA               	movwf	(_count+2)^(0+128)
  1397  0DDD  1283               	bcf	3,5	;RP0=0, select bank0
  1398  0DDE  1303               	bcf	3,6	;RP1=0, select bank0
  1399  0DDF  082A               	movf	?___xxtofl+1,w
  1400  0DE0  1683               	bsf	3,5	;RP0=1, select bank1
  1401  0DE1  1303               	bcf	3,6	;RP1=0, select bank1
  1402  0DE2  00A9               	movwf	(_count+1)^(0+128)
  1403  0DE3  1283               	bcf	3,5	;RP0=0, select bank0
  1404  0DE4  1303               	bcf	3,6	;RP1=0, select bank0
  1405  0DE5  0829               	movf	?___xxtofl,w
  1406  0DE6  1683               	bsf	3,5	;RP0=1, select bank1
  1407  0DE7  1303               	bcf	3,6	;RP1=0, select bank1
  1408  0DE8  00A8               	movwf	_count^(0+128)
  1409  0DE9                     l3508:
  1410                           
  1411                           ;lab4.c: 128:         pot = PORTB;
  1412  0DE9  1283               	bcf	3,5	;RP0=0, select bank0
  1413  0DEA  1303               	bcf	3,6	;RP1=0, select bank0
  1414  0DEB  0806               	movf	6,w	;volatile
  1415  0DEC  1683               	bsf	3,5	;RP0=1, select bank1
  1416  0DED  1303               	bcf	3,6	;RP1=0, select bank1
  1417  0DEE  00E8               	movwf	??_main^(0+128)
  1418  0DEF  0868               	movf	??_main^(0+128),w
  1419  0DF0  00B3               	movwf	_pot^(0+128)	;volatile
  1420  0DF1                     l3510:
  1421                           
  1422                           ;lab4.c: 129:         temperature = PORTD;
  1423  0DF1  1283               	bcf	3,5	;RP0=0, select bank0
  1424  0DF2  1303               	bcf	3,6	;RP1=0, select bank0
  1425  0DF3  0808               	movf	8,w	;volatile
  1426  0DF4  1683               	bsf	3,5	;RP0=1, select bank1
  1427  0DF5  1303               	bcf	3,6	;RP1=0, select bank1
  1428  0DF6  00E8               	movwf	??_main^(0+128)
  1429  0DF7  0868               	movf	??_main^(0+128),w
  1430  0DF8  00B4               	movwf	_temperature^(0+128)	;volatile
  1431                           
  1432                           ;lab4.c: 132:     Lcd_Clear();
  1433  0DF9  160A  118A  228D  120A  158A  	fcall	_Lcd_Clear
  1434                           
  1435                           ;lab4.c: 133:     Lcd_Set_Cursor(1,2);
  1436  0DFE  3002               	movlw	2
  1437  0DFF  1683               	bsf	3,5	;RP0=1, select bank1
  1438  0E00  1303               	bcf	3,6	;RP1=0, select bank1
  1439  0E01  00E8               	movwf	??_main^(0+128)
  1440  0E02  0868               	movf	??_main^(0+128),w
  1441  0E03  00F6               	movwf	Lcd_Set_Cursor@b
  1442  0E04  3001               	movlw	1
  1443  0E05  160A  118A  245B  120A  158A  	fcall	_Lcd_Set_Cursor
  1444  0E0A                     l3512:
  1445                           
  1446                           ;lab4.c: 134:     Lcd_Write_String("S1");
  1447  0E0A  3001               	movlw	(low ((STR_1-__stringbase)| (0+32768)))& (0+255)
  1448  0E0B  00F7               	movwf	Lcd_Write_String@a
  1449  0E0C  3080               	movlw	128
  1450  0E0D  00F8               	movwf	Lcd_Write_String@a+1
  1451  0E0E  160A  118A  2415  120A  158A  	fcall	_Lcd_Write_String
  1452  0E13                     l3514:
  1453                           
  1454                           ;lab4.c: 135:     Lcd_Set_Cursor(1,8);
  1455  0E13  3008               	movlw	8
  1456  0E14  1683               	bsf	3,5	;RP0=1, select bank1
  1457  0E15  1303               	bcf	3,6	;RP1=0, select bank1
  1458  0E16  00E8               	movwf	??_main^(0+128)
  1459  0E17  0868               	movf	??_main^(0+128),w
  1460  0E18  00F6               	movwf	Lcd_Set_Cursor@b
  1461  0E19  3001               	movlw	1
  1462  0E1A  160A  118A  245B  120A  158A  	fcall	_Lcd_Set_Cursor
  1463                           
  1464                           ;lab4.c: 136:     Lcd_Write_String("S2");
  1465  0E1F  3004               	movlw	(low ((STR_2-__stringbase)| (0+32768)))& (0+255)
  1466  0E20  00F7               	movwf	Lcd_Write_String@a
  1467  0E21  3080               	movlw	128
  1468  0E22  00F8               	movwf	Lcd_Write_String@a+1
  1469  0E23  160A  118A  2415  120A  158A  	fcall	_Lcd_Write_String
  1470  0E28                     l3516:
  1471                           
  1472                           ;lab4.c: 137:     Lcd_Set_Cursor(1,14);
  1473  0E28  300E               	movlw	14
  1474  0E29  1683               	bsf	3,5	;RP0=1, select bank1
  1475  0E2A  1303               	bcf	3,6	;RP1=0, select bank1
  1476  0E2B  00E8               	movwf	??_main^(0+128)
  1477  0E2C  0868               	movf	??_main^(0+128),w
  1478  0E2D  00F6               	movwf	Lcd_Set_Cursor@b
  1479  0E2E  3001               	movlw	1
  1480  0E2F  160A  118A  245B  120A  158A  	fcall	_Lcd_Set_Cursor
  1481  0E34                     l3518:
  1482                           
  1483                           ;lab4.c: 138:     Lcd_Write_String("S3");
  1484  0E34  3007               	movlw	(low ((STR_3-__stringbase)| (0+32768)))& (0+255)
  1485  0E35  00F7               	movwf	Lcd_Write_String@a
  1486  0E36  3080               	movlw	128
  1487  0E37  00F8               	movwf	Lcd_Write_String@a+1
  1488  0E38  160A  118A  2415  120A  158A  	fcall	_Lcd_Write_String
  1489  0E3D                     l3520:
  1490                           
  1491                           ;lab4.c: 139:     _delay((unsigned long)((1000)*(4000000/4000.0)));
  1492  0E3D  3006               	movlw	6
  1493  0E3E  1683               	bsf	3,5	;RP0=1, select bank1
  1494  0E3F  1303               	bcf	3,6	;RP1=0, select bank1
  1495  0E40  00EA               	movwf	(??_main^(0+128)+2)
  1496  0E41  3013               	movlw	19
  1497  0E42  00E9               	movwf	(??_main^(0+128)+1)
  1498  0E43  30AD               	movlw	173
  1499  0E44  00E8               	movwf	??_main^(0+128)
  1500  0E45                     u4917:
  1501  0E45  0BE8               	decfsz	??_main^(0+128),f
  1502  0E46  2E45               	goto	u4917
  1503  0E47  0BE9               	decfsz	(??_main^(0+128)+1),f
  1504  0E48  2E45               	goto	u4917
  1505  0E49  0BEA               	decfsz	(??_main^(0+128)+2),f
  1506  0E4A  2E45               	goto	u4917
  1507  0E4B                     l3522:
  1508                           
  1509                           ;lab4.c: 140:     Lcd_Set_Cursor(2,1);
  1510  0E4B  01F6               	clrf	Lcd_Set_Cursor@b
  1511  0E4C  0AF6               	incf	Lcd_Set_Cursor@b,f
  1512  0E4D  3002               	movlw	2
  1513  0E4E  160A  118A  245B  120A  158A  	fcall	_Lcd_Set_Cursor
  1514  0E53                     l3524:
  1515                           
  1516                           ;lab4.c: 141:     Lcd_Write_String(adc0);
  1517  0E53  30C9               	movlw	(low (_adc0| 0))& (0+255)
  1518  0E54  00F7               	movwf	Lcd_Write_String@a
  1519  0E55  3000               	movlw	0
  1520  0E56  00F8               	movwf	Lcd_Write_String@a+1
  1521  0E57  160A  118A  2415  120A  158A  	fcall	_Lcd_Write_String
  1522  0E5C                     l3526:
  1523                           
  1524                           ;lab4.c: 142:     Lcd_Set_Cursor(2,4);
  1525  0E5C  3004               	movlw	4
  1526  0E5D  1683               	bsf	3,5	;RP0=1, select bank1
  1527  0E5E  1303               	bcf	3,6	;RP1=0, select bank1
  1528  0E5F  00E8               	movwf	??_main^(0+128)
  1529  0E60  0868               	movf	??_main^(0+128),w
  1530  0E61  00F6               	movwf	Lcd_Set_Cursor@b
  1531  0E62  3002               	movlw	2
  1532  0E63  160A  118A  245B  120A  158A  	fcall	_Lcd_Set_Cursor
  1533  0E68                     l3528:
  1534                           
  1535                           ;lab4.c: 143:     Lcd_Write_String("V");
  1536  0E68  300C               	movlw	(low ((STR_4-__stringbase)| (0+32768)))& (0+255)
  1537  0E69  00F7               	movwf	Lcd_Write_String@a
  1538  0E6A  3080               	movlw	128
  1539  0E6B  00F8               	movwf	Lcd_Write_String@a+1
  1540  0E6C  160A  118A  2415  120A  158A  	fcall	_Lcd_Write_String
  1541  0E71                     l3530:
  1542                           
  1543                           ;lab4.c: 144:     Lcd_Set_Cursor(2,7);
  1544  0E71  3007               	movlw	7
  1545  0E72  1683               	bsf	3,5	;RP0=1, select bank1
  1546  0E73  1303               	bcf	3,6	;RP1=0, select bank1
  1547  0E74  00E8               	movwf	??_main^(0+128)
  1548  0E75  0868               	movf	??_main^(0+128),w
  1549  0E76  00F6               	movwf	Lcd_Set_Cursor@b
  1550  0E77  3002               	movlw	2
  1551  0E78  160A  118A  245B  120A  158A  	fcall	_Lcd_Set_Cursor
  1552  0E7D                     l3532:
  1553                           
  1554                           ;lab4.c: 145:     Lcd_Write_String(cont);
  1555  0E7D  30B5               	movlw	(low (_cont| 0))& (0+255)
  1556  0E7E  00F7               	movwf	Lcd_Write_String@a
  1557  0E7F  3000               	movlw	0
  1558  0E80  00F8               	movwf	Lcd_Write_String@a+1
  1559  0E81  160A  118A  2415  120A  158A  	fcall	_Lcd_Write_String
  1560  0E86                     l3534:
  1561                           
  1562                           ;lab4.c: 146:     Lcd_Set_Cursor(2,11);
  1563  0E86  300B               	movlw	11
  1564  0E87  1683               	bsf	3,5	;RP0=1, select bank1
  1565  0E88  1303               	bcf	3,6	;RP1=0, select bank1
  1566  0E89  00E8               	movwf	??_main^(0+128)
  1567  0E8A  0868               	movf	??_main^(0+128),w
  1568  0E8B  00F6               	movwf	Lcd_Set_Cursor@b
  1569  0E8C  3002               	movlw	2
  1570  0E8D  160A  118A  245B  120A  158A  	fcall	_Lcd_Set_Cursor
  1571  0E92                     l3536:
  1572                           
  1573                           ;lab4.c: 147:     Lcd_Write_String("'");
  1574  0E92  300A               	movlw	(low ((STR_5-__stringbase)| (0+32768)))& (0+255)
  1575  0E93  00F7               	movwf	Lcd_Write_String@a
  1576  0E94  3080               	movlw	128
  1577  0E95  00F8               	movwf	Lcd_Write_String@a+1
  1578  0E96  160A  118A  2415  120A  158A  	fcall	_Lcd_Write_String
  1579  0E9B                     l3538:
  1580                           
  1581                           ;lab4.c: 148:     Lcd_Set_Cursor(2,14);
  1582  0E9B  300E               	movlw	14
  1583  0E9C  1683               	bsf	3,5	;RP0=1, select bank1
  1584  0E9D  1303               	bcf	3,6	;RP1=0, select bank1
  1585  0E9E  00E8               	movwf	??_main^(0+128)
  1586  0E9F  0868               	movf	??_main^(0+128),w
  1587  0EA0  00F6               	movwf	Lcd_Set_Cursor@b
  1588  0EA1  3002               	movlw	2
  1589  0EA2  160A  118A  245B  120A  158A  	fcall	_Lcd_Set_Cursor
  1590  0EA7                     l3540:
  1591                           
  1592                           ;lab4.c: 149:     Lcd_Write_String(adc1);
  1593  0EA7  30BF               	movlw	(low (_adc1| 0))& (0+255)
  1594  0EA8  00F7               	movwf	Lcd_Write_String@a
  1595  0EA9  3000               	movlw	0
  1596  0EAA  00F8               	movwf	Lcd_Write_String@a+1
  1597  0EAB  160A  118A  2415  120A  158A  	fcall	_Lcd_Write_String
  1598  0EB0                     l3542:
  1599                           
  1600                           ;lab4.c: 150:     _delay((unsigned long)((2000)*(4000000/4000.0)));
  1601  0EB0  300B               	movlw	11
  1602  0EB1  1683               	bsf	3,5	;RP0=1, select bank1
  1603  0EB2  1303               	bcf	3,6	;RP1=0, select bank1
  1604  0EB3  00EA               	movwf	(??_main^(0+128)+2)
  1605  0EB4  3026               	movlw	38
  1606  0EB5  00E9               	movwf	(??_main^(0+128)+1)
  1607  0EB6  305D               	movlw	93
  1608  0EB7  00E8               	movwf	??_main^(0+128)
  1609  0EB8                     u4927:
  1610  0EB8  0BE8               	decfsz	??_main^(0+128),f
  1611  0EB9  2EB8               	goto	u4927
  1612  0EBA  0BE9               	decfsz	(??_main^(0+128)+1),f
  1613  0EBB  2EB8               	goto	u4927
  1614  0EBC  0BEA               	decfsz	(??_main^(0+128)+2),f
  1615  0EBD  2EB8               	goto	u4927
  1616  0EBE                     l3544:
  1617                           
  1618                           ;lab4.c: 153:     converted = temperature - 77 ;
  1619  0EBE  1683               	bsf	3,5	;RP0=1, select bank1
  1620  0EBF  1303               	bcf	3,6	;RP1=0, select bank1
  1621  0EC0  0834               	movf	_temperature^(0+128),w	;volatile
  1622  0EC1  3EB3               	addlw	179
  1623  0EC2  00E8               	movwf	??_main^(0+128)
  1624  0EC3  0868               	movf	??_main^(0+128),w
  1625  0EC4  00B2               	movwf	_converted^(0+128)
  1626  0EC5                     l3546:
  1627                           
  1628                           ;lab4.c: 155:     conv0 = 0;
  1629  0EC5  3000               	movlw	0
  1630  0EC6  00A7               	movwf	(_conv0+3)^(0+128)
  1631  0EC7  3000               	movlw	0
  1632  0EC8  00A6               	movwf	(_conv0+2)^(0+128)
  1633  0EC9  3000               	movlw	0
  1634  0ECA  00A5               	movwf	(_conv0+1)^(0+128)
  1635  0ECB  3000               	movlw	0
  1636  0ECC  00A4               	movwf	_conv0^(0+128)
  1637  0ECD                     l3548:
  1638                           
  1639                           ;lab4.c: 158:     conv0 = (pot / (float) 255)*5;
  1640  0ECD  3040               	movlw	64
  1641  0ECE  1283               	bcf	3,5	;RP0=0, select bank0
  1642  0ECF  1303               	bcf	3,6	;RP1=0, select bank0
  1643  0ED0  00D4               	movwf	___flmul@b+3
  1644  0ED1  30A0               	movlw	160
  1645  0ED2  00D3               	movwf	___flmul@b+2
  1646  0ED3  3000               	movlw	0
  1647  0ED4  00D2               	movwf	___flmul@b+1
  1648  0ED5  3000               	movlw	0
  1649  0ED6  00D1               	movwf	___flmul@b
  1650  0ED7  3043               	movlw	67
  1651  0ED8  00BA               	movwf	___fldiv@a+3
  1652  0ED9  307F               	movlw	127
  1653  0EDA  00B9               	movwf	___fldiv@a+2
  1654  0EDB  3000               	movlw	0
  1655  0EDC  00B8               	movwf	___fldiv@a+1
  1656  0EDD  3000               	movlw	0
  1657  0EDE  00B7               	movwf	___fldiv@a
  1658  0EDF  1683               	bsf	3,5	;RP0=1, select bank1
  1659  0EE0  1303               	bcf	3,6	;RP1=0, select bank1
  1660  0EE1  0833               	movf	_pot^(0+128),w	;volatile
  1661  0EE2  00E8               	movwf	??_main^(0+128)
  1662  0EE3  01E9               	clrf	(??_main^(0+128)+1)
  1663  0EE4  01EA               	clrf	(??_main^(0+128)+2)
  1664  0EE5  01EB               	clrf	(??_main^(0+128)+3)
  1665  0EE6  086B               	movf	(??_main+3)^(0+128),w
  1666  0EE7  1283               	bcf	3,5	;RP0=0, select bank0
  1667  0EE8  1303               	bcf	3,6	;RP1=0, select bank0
  1668  0EE9  00AC               	movwf	___xxtofl@val+3
  1669  0EEA  1683               	bsf	3,5	;RP0=1, select bank1
  1670  0EEB  1303               	bcf	3,6	;RP1=0, select bank1
  1671  0EEC  086A               	movf	(??_main+2)^(0+128),w
  1672  0EED  1283               	bcf	3,5	;RP0=0, select bank0
  1673  0EEE  1303               	bcf	3,6	;RP1=0, select bank0
  1674  0EEF  00AB               	movwf	___xxtofl@val+2
  1675  0EF0  1683               	bsf	3,5	;RP0=1, select bank1
  1676  0EF1  1303               	bcf	3,6	;RP1=0, select bank1
  1677  0EF2  0869               	movf	(??_main+1)^(0+128),w
  1678  0EF3  1283               	bcf	3,5	;RP0=0, select bank0
  1679  0EF4  1303               	bcf	3,6	;RP1=0, select bank0
  1680  0EF5  00AA               	movwf	___xxtofl@val+1
  1681  0EF6  1683               	bsf	3,5	;RP0=1, select bank1
  1682  0EF7  1303               	bcf	3,6	;RP1=0, select bank1
  1683  0EF8  0868               	movf	??_main^(0+128),w
  1684  0EF9  1283               	bcf	3,5	;RP0=0, select bank0
  1685  0EFA  1303               	bcf	3,6	;RP1=0, select bank0
  1686  0EFB  00A9               	movwf	___xxtofl@val
  1687  0EFC  3001               	movlw	1
  1688  0EFD  160A  118A  2744  120A  158A  	fcall	___xxtofl
  1689  0F02  1283               	bcf	3,5	;RP0=0, select bank0
  1690  0F03  1303               	bcf	3,6	;RP1=0, select bank0
  1691  0F04  082C               	movf	?___xxtofl+3,w
  1692  0F05  00BE               	movwf	___fldiv@b+3
  1693  0F06  082B               	movf	?___xxtofl+2,w
  1694  0F07  00BD               	movwf	___fldiv@b+2
  1695  0F08  082A               	movf	?___xxtofl+1,w
  1696  0F09  00BC               	movwf	___fldiv@b+1
  1697  0F0A  0829               	movf	?___xxtofl,w
  1698  0F0B  00BB               	movwf	___fldiv@b
  1699  0F0C  120A  158A  2083  120A  158A  	fcall	___fldiv
  1700  0F11  1283               	bcf	3,5	;RP0=0, select bank0
  1701  0F12  1303               	bcf	3,6	;RP1=0, select bank0
  1702  0F13  083A               	movf	?___fldiv+3,w
  1703  0F14  00D8               	movwf	___flmul@a+3
  1704  0F15  0839               	movf	?___fldiv+2,w
  1705  0F16  00D7               	movwf	___flmul@a+2
  1706  0F17  0838               	movf	?___fldiv+1,w
  1707  0F18  00D6               	movwf	___flmul@a+1
  1708  0F19  0837               	movf	?___fldiv,w
  1709  0F1A  00D5               	movwf	___flmul@a
  1710  0F1B  120A  118A  2480  120A  158A  	fcall	___flmul
  1711  0F20  1283               	bcf	3,5	;RP0=0, select bank0
  1712  0F21  1303               	bcf	3,6	;RP1=0, select bank0
  1713  0F22  0854               	movf	?___flmul+3,w
  1714  0F23  1683               	bsf	3,5	;RP0=1, select bank1
  1715  0F24  1303               	bcf	3,6	;RP1=0, select bank1
  1716  0F25  00A7               	movwf	(_conv0+3)^(0+128)
  1717  0F26  1283               	bcf	3,5	;RP0=0, select bank0
  1718  0F27  1303               	bcf	3,6	;RP1=0, select bank0
  1719  0F28  0853               	movf	?___flmul+2,w
  1720  0F29  1683               	bsf	3,5	;RP0=1, select bank1
  1721  0F2A  1303               	bcf	3,6	;RP1=0, select bank1
  1722  0F2B  00A6               	movwf	(_conv0+2)^(0+128)
  1723  0F2C  1283               	bcf	3,5	;RP0=0, select bank0
  1724  0F2D  1303               	bcf	3,6	;RP1=0, select bank0
  1725  0F2E  0852               	movf	?___flmul+1,w
  1726  0F2F  1683               	bsf	3,5	;RP0=1, select bank1
  1727  0F30  1303               	bcf	3,6	;RP1=0, select bank1
  1728  0F31  00A5               	movwf	(_conv0+1)^(0+128)
  1729  0F32  1283               	bcf	3,5	;RP0=0, select bank0
  1730  0F33  1303               	bcf	3,6	;RP1=0, select bank0
  1731  0F34  0851               	movf	?___flmul,w
  1732  0F35  1683               	bsf	3,5	;RP0=1, select bank1
  1733  0F36  1303               	bcf	3,6	;RP1=0, select bank1
  1734  0F37  00A4               	movwf	_conv0^(0+128)
  1735  0F38                     l3550:
  1736                           
  1737                           ;lab4.c: 160:     ADC_convert(adc0, conv0, 2);
  1738  0F38  0827               	movf	(_conv0+3)^(0+128),w
  1739  0F39  00D6               	movwf	(ADC_convert@a+3)^(0+128)
  1740  0F3A  0826               	movf	(_conv0+2)^(0+128),w
  1741  0F3B  00D5               	movwf	(ADC_convert@a+2)^(0+128)
  1742  0F3C  0825               	movf	(_conv0+1)^(0+128),w
  1743  0F3D  00D4               	movwf	(ADC_convert@a+1)^(0+128)
  1744  0F3E  0824               	movf	_conv0^(0+128),w
  1745  0F3F  00D3               	movwf	ADC_convert@a^(0+128)
  1746  0F40  3002               	movlw	2
  1747  0F41  00D7               	movwf	ADC_convert@place^(0+128)
  1748  0F42  3000               	movlw	0
  1749  0F43  00D8               	movwf	(ADC_convert@place^(0+128)+1)
  1750  0F44  30C9               	movlw	(low (_adc0| 0))& (0+255)
  1751  0F45  120A  118A  201E  120A  158A  	fcall	_ADC_convert
  1752  0F4A                     l3552:
  1753                           
  1754                           ;lab4.c: 163:     ADC_convert(adc1, converted, 2);
  1755  0F4A  1683               	bsf	3,5	;RP0=1, select bank1
  1756  0F4B  1303               	bcf	3,6	;RP1=0, select bank1
  1757  0F4C  0832               	movf	_converted^(0+128),w
  1758  0F4D  00E8               	movwf	??_main^(0+128)
  1759  0F4E  01E9               	clrf	(??_main^(0+128)+1)
  1760  0F4F  01EA               	clrf	(??_main^(0+128)+2)
  1761  0F50  01EB               	clrf	(??_main^(0+128)+3)
  1762  0F51  086B               	movf	(??_main+3)^(0+128),w
  1763  0F52  1283               	bcf	3,5	;RP0=0, select bank0
  1764  0F53  1303               	bcf	3,6	;RP1=0, select bank0
  1765  0F54  00AC               	movwf	___xxtofl@val+3
  1766  0F55  1683               	bsf	3,5	;RP0=1, select bank1
  1767  0F56  1303               	bcf	3,6	;RP1=0, select bank1
  1768  0F57  086A               	movf	(??_main+2)^(0+128),w
  1769  0F58  1283               	bcf	3,5	;RP0=0, select bank0
  1770  0F59  1303               	bcf	3,6	;RP1=0, select bank0
  1771  0F5A  00AB               	movwf	___xxtofl@val+2
  1772  0F5B  1683               	bsf	3,5	;RP0=1, select bank1
  1773  0F5C  1303               	bcf	3,6	;RP1=0, select bank1
  1774  0F5D  0869               	movf	(??_main+1)^(0+128),w
  1775  0F5E  1283               	bcf	3,5	;RP0=0, select bank0
  1776  0F5F  1303               	bcf	3,6	;RP1=0, select bank0
  1777  0F60  00AA               	movwf	___xxtofl@val+1
  1778  0F61  1683               	bsf	3,5	;RP0=1, select bank1
  1779  0F62  1303               	bcf	3,6	;RP1=0, select bank1
  1780  0F63  0868               	movf	??_main^(0+128),w
  1781  0F64  1283               	bcf	3,5	;RP0=0, select bank0
  1782  0F65  1303               	bcf	3,6	;RP1=0, select bank0
  1783  0F66  00A9               	movwf	___xxtofl@val
  1784  0F67  3000               	movlw	0
  1785  0F68  160A  118A  2744  120A  158A  	fcall	___xxtofl
  1786  0F6D  1283               	bcf	3,5	;RP0=0, select bank0
  1787  0F6E  1303               	bcf	3,6	;RP1=0, select bank0
  1788  0F6F  082C               	movf	?___xxtofl+3,w
  1789  0F70  1683               	bsf	3,5	;RP0=1, select bank1
  1790  0F71  1303               	bcf	3,6	;RP1=0, select bank1
  1791  0F72  00EF               	movwf	(_main$1038+3)^(0+128)
  1792  0F73  1283               	bcf	3,5	;RP0=0, select bank0
  1793  0F74  1303               	bcf	3,6	;RP1=0, select bank0
  1794  0F75  082B               	movf	?___xxtofl+2,w
  1795  0F76  1683               	bsf	3,5	;RP0=1, select bank1
  1796  0F77  1303               	bcf	3,6	;RP1=0, select bank1
  1797  0F78  00EE               	movwf	(_main$1038+2)^(0+128)
  1798  0F79  1283               	bcf	3,5	;RP0=0, select bank0
  1799  0F7A  1303               	bcf	3,6	;RP1=0, select bank0
  1800  0F7B  082A               	movf	?___xxtofl+1,w
  1801  0F7C  1683               	bsf	3,5	;RP0=1, select bank1
  1802  0F7D  1303               	bcf	3,6	;RP1=0, select bank1
  1803  0F7E  00ED               	movwf	(_main$1038+1)^(0+128)
  1804  0F7F  1283               	bcf	3,5	;RP0=0, select bank0
  1805  0F80  1303               	bcf	3,6	;RP1=0, select bank0
  1806  0F81  0829               	movf	?___xxtofl,w
  1807  0F82  1683               	bsf	3,5	;RP0=1, select bank1
  1808  0F83  1303               	bcf	3,6	;RP1=0, select bank1
  1809  0F84  00EC               	movwf	_main$1038^(0+128)
  1810  0F85                     l3554:
  1811                           
  1812                           ;lab4.c: 163:     ADC_convert(adc1, converted, 2);
  1813  0F85  086F               	movf	(_main$1038+3)^(0+128),w
  1814  0F86  00D6               	movwf	(ADC_convert@a+3)^(0+128)
  1815  0F87  086E               	movf	(_main$1038+2)^(0+128),w
  1816  0F88  00D5               	movwf	(ADC_convert@a+2)^(0+128)
  1817  0F89  086D               	movf	(_main$1038+1)^(0+128),w
  1818  0F8A  00D4               	movwf	(ADC_convert@a+1)^(0+128)
  1819  0F8B  086C               	movf	_main$1038^(0+128),w
  1820  0F8C  00D3               	movwf	ADC_convert@a^(0+128)
  1821  0F8D  3002               	movlw	2
  1822  0F8E  00D7               	movwf	ADC_convert@place^(0+128)
  1823  0F8F  3000               	movlw	0
  1824  0F90  00D8               	movwf	(ADC_convert@place^(0+128)+1)
  1825  0F91  30BF               	movlw	(low (_adc1| 0))& (0+255)
  1826  0F92  120A  118A  201E  120A  158A  	fcall	_ADC_convert
  1827  0F97                     l3556:
  1828                           
  1829                           ;lab4.c: 165:     converted02 = division(count);
  1830  0F97  1683               	bsf	3,5	;RP0=1, select bank1
  1831  0F98  1303               	bcf	3,6	;RP1=0, select bank1
  1832  0F99  082B               	movf	(_count+3)^(0+128),w
  1833  0F9A  00F5               	movwf	___fltol@f1+3
  1834  0F9B  082A               	movf	(_count+2)^(0+128),w
  1835  0F9C  00F4               	movwf	___fltol@f1+2
  1836  0F9D  0829               	movf	(_count+1)^(0+128),w
  1837  0F9E  00F3               	movwf	___fltol@f1+1
  1838  0F9F  0828               	movf	_count^(0+128),w
  1839  0FA0  00F2               	movwf	___fltol@f1
  1840  0FA1  120A  158A  2007  120A  158A  	fcall	___fltol
  1841  0FA6  0872               	movf	?___fltol,w
  1842  0FA7  160A  118A  2569  120A  158A  	fcall	_division
  1843  0FAC  1683               	bsf	3,5	;RP0=1, select bank1
  1844  0FAD  1303               	bcf	3,6	;RP1=0, select bank1
  1845  0FAE  00E8               	movwf	??_main^(0+128)
  1846  0FAF  0868               	movf	??_main^(0+128),w
  1847  0FB0  00B1               	movwf	_converted02^(0+128)
  1848  0FB1                     l3558:
  1849                           
  1850                           ;lab4.c: 166:     ADC_convert(cont, converted02, 2);
  1851  0FB1  0831               	movf	_converted02^(0+128),w
  1852  0FB2  00E8               	movwf	??_main^(0+128)
  1853  0FB3  01E9               	clrf	(??_main^(0+128)+1)
  1854  0FB4  01EA               	clrf	(??_main^(0+128)+2)
  1855  0FB5  01EB               	clrf	(??_main^(0+128)+3)
  1856  0FB6  086B               	movf	(??_main+3)^(0+128),w
  1857  0FB7  1283               	bcf	3,5	;RP0=0, select bank0
  1858  0FB8  1303               	bcf	3,6	;RP1=0, select bank0
  1859  0FB9  00AC               	movwf	___xxtofl@val+3
  1860  0FBA  1683               	bsf	3,5	;RP0=1, select bank1
  1861  0FBB  1303               	bcf	3,6	;RP1=0, select bank1
  1862  0FBC  086A               	movf	(??_main+2)^(0+128),w
  1863  0FBD  1283               	bcf	3,5	;RP0=0, select bank0
  1864  0FBE  1303               	bcf	3,6	;RP1=0, select bank0
  1865  0FBF  00AB               	movwf	___xxtofl@val+2
  1866  0FC0  1683               	bsf	3,5	;RP0=1, select bank1
  1867  0FC1  1303               	bcf	3,6	;RP1=0, select bank1
  1868  0FC2  0869               	movf	(??_main+1)^(0+128),w
  1869  0FC3  1283               	bcf	3,5	;RP0=0, select bank0
  1870  0FC4  1303               	bcf	3,6	;RP1=0, select bank0
  1871  0FC5  00AA               	movwf	___xxtofl@val+1
  1872  0FC6  1683               	bsf	3,5	;RP0=1, select bank1
  1873  0FC7  1303               	bcf	3,6	;RP1=0, select bank1
  1874  0FC8  0868               	movf	??_main^(0+128),w
  1875  0FC9  1283               	bcf	3,5	;RP0=0, select bank0
  1876  0FCA  1303               	bcf	3,6	;RP1=0, select bank0
  1877  0FCB  00A9               	movwf	___xxtofl@val
  1878  0FCC  3000               	movlw	0
  1879  0FCD  160A  118A  2744  120A  158A  	fcall	___xxtofl
  1880  0FD2  1283               	bcf	3,5	;RP0=0, select bank0
  1881  0FD3  1303               	bcf	3,6	;RP1=0, select bank0
  1882  0FD4  082C               	movf	?___xxtofl+3,w
  1883  0FD5  1683               	bsf	3,5	;RP0=1, select bank1
  1884  0FD6  1303               	bcf	3,6	;RP1=0, select bank1
  1885  0FD7  00EF               	movwf	(_main$1038+3)^(0+128)
  1886  0FD8  1283               	bcf	3,5	;RP0=0, select bank0
  1887  0FD9  1303               	bcf	3,6	;RP1=0, select bank0
  1888  0FDA  082B               	movf	?___xxtofl+2,w
  1889  0FDB  1683               	bsf	3,5	;RP0=1, select bank1
  1890  0FDC  1303               	bcf	3,6	;RP1=0, select bank1
  1891  0FDD  00EE               	movwf	(_main$1038+2)^(0+128)
  1892  0FDE  1283               	bcf	3,5	;RP0=0, select bank0
  1893  0FDF  1303               	bcf	3,6	;RP1=0, select bank0
  1894  0FE0  082A               	movf	?___xxtofl+1,w
  1895  0FE1  1683               	bsf	3,5	;RP0=1, select bank1
  1896  0FE2  1303               	bcf	3,6	;RP1=0, select bank1
  1897  0FE3  00ED               	movwf	(_main$1038+1)^(0+128)
  1898  0FE4  1283               	bcf	3,5	;RP0=0, select bank0
  1899  0FE5  1303               	bcf	3,6	;RP1=0, select bank0
  1900  0FE6  0829               	movf	?___xxtofl,w
  1901  0FE7  1683               	bsf	3,5	;RP0=1, select bank1
  1902  0FE8  1303               	bcf	3,6	;RP1=0, select bank1
  1903  0FE9  00EC               	movwf	_main$1038^(0+128)
  1904  0FEA                     l3560:
  1905                           
  1906                           ;lab4.c: 166:     ADC_convert(cont, converted02, 2);
  1907  0FEA  086F               	movf	(_main$1038+3)^(0+128),w
  1908  0FEB  00D6               	movwf	(ADC_convert@a+3)^(0+128)
  1909  0FEC  086E               	movf	(_main$1038+2)^(0+128),w
  1910  0FED  00D5               	movwf	(ADC_convert@a+2)^(0+128)
  1911  0FEE  086D               	movf	(_main$1038+1)^(0+128),w
  1912  0FEF  00D4               	movwf	(ADC_convert@a+1)^(0+128)
  1913  0FF0  086C               	movf	_main$1038^(0+128),w
  1914  0FF1  00D3               	movwf	ADC_convert@a^(0+128)
  1915  0FF2  3002               	movlw	2
  1916  0FF3  00D7               	movwf	ADC_convert@place^(0+128)
  1917  0FF4  3000               	movlw	0
  1918  0FF5  00D8               	movwf	(ADC_convert@place^(0+128)+1)
  1919  0FF6  30B5               	movlw	(low (_cont| 0))& (0+255)
  1920  0FF7  120A  118A  201E  120A  158A  	fcall	_ADC_convert
  1921  0FFC  2CF7               	goto	l219
  1922  0FFD  120A  118A  280C   	ljmp	start
  1923  1000                     __end_of_main:
  1924                           
  1925                           	psect	text1
  1926  134A                     __ptext1:	
  1927 ;; *************** function _setup *****************
  1928 ;; Defined at:
  1929 ;;		line 176 in file "lab4.c"
  1930 ;; Parameters:    Size  Location     Type
  1931 ;;		None
  1932 ;; Auto vars:     Size  Location     Type
  1933 ;;		None
  1934 ;; Return value:  Size  Location     Type
  1935 ;;                  1    wreg      void 
  1936 ;; Registers used:
  1937 ;;		wreg, status,2, status,0, pclath, cstack
  1938 ;; Tracked objects:
  1939 ;;		On entry : 0/0
  1940 ;;		On exit  : 0/0
  1941 ;;		Unchanged: 0/0
  1942 ;; Data sizes:     COMMON   BANK0   BANK1   BANK3   BANK2
  1943 ;;      Params:         0       0       0       0       0
  1944 ;;      Locals:         0       0       0       0       0
  1945 ;;      Temps:          0       0       0       0       0
  1946 ;;      Totals:         0       0       0       0       0
  1947 ;;Total ram usage:        0 bytes
  1948 ;; Hardware stack levels used: 1
  1949 ;; Hardware stack levels required when called: 3
  1950 ;; This function calls:
  1951 ;;		_I2C_Master_Init
  1952 ;; This function is called by:
  1953 ;;		_main
  1954 ;; This function uses a non-reentrant model
  1955 ;;
  1956                           
  1957                           
  1958                           ;psect for function _setup
  1959  134A                     _setup:
  1960  134A                     l3354:	
  1961                           ;incstack = 0
  1962                           ; Regs used in _setup: [wreg+status,2+status,0+pclath+cstack]
  1963                           
  1964                           
  1965                           ;lab4.c: 178:     ANSEL = 0;
  1966  134A  1683               	bsf	3,5	;RP0=1, select bank3
  1967  134B  1703               	bsf	3,6	;RP1=1, select bank3
  1968  134C  0188               	clrf	8	;volatile
  1969                           
  1970                           ;lab4.c: 179:     ANSELH = 0;
  1971  134D  0189               	clrf	9	;volatile
  1972  134E                     l3356:
  1973                           
  1974                           ;lab4.c: 181:     TRISAbits.TRISA0 = 0;
  1975  134E  1683               	bsf	3,5	;RP0=1, select bank1
  1976  134F  1303               	bcf	3,6	;RP1=0, select bank1
  1977  1350  1005               	bcf	5,0	;volatile
  1978  1351                     l3358:
  1979                           
  1980                           ;lab4.c: 182:     TRISAbits.TRISA1 = 0;
  1981  1351  1085               	bcf	5,1	;volatile
  1982  1352                     l3360:
  1983                           
  1984                           ;lab4.c: 183:     TRISAbits.TRISA2 = 0;
  1985  1352  1105               	bcf	5,2	;volatile
  1986  1353                     l3362:
  1987                           
  1988                           ;lab4.c: 184:     TRISAbits.TRISA3 = 0;
  1989  1353  1185               	bcf	5,3	;volatile
  1990                           
  1991                           ;lab4.c: 186:     TRISB = 0;
  1992  1354  0186               	clrf	6	;volatile
  1993                           
  1994                           ;lab4.c: 187:     TRISD = 0;
  1995  1355  0188               	clrf	8	;volatile
  1996                           
  1997                           ;lab4.c: 188:     TRISC = 0;
  1998  1356  0187               	clrf	7	;volatile
  1999  1357                     l3364:
  2000                           
  2001                           ;lab4.c: 189:     TRISEbits.TRISE0 = 0;
  2002  1357  1009               	bcf	9,0	;volatile
  2003  1358                     l3366:
  2004                           
  2005                           ;lab4.c: 190:     TRISEbits.TRISE1 = 0;
  2006  1358  1089               	bcf	9,1	;volatile
  2007                           
  2008                           ;lab4.c: 195:     PORTA = 0x00;
  2009  1359  1283               	bcf	3,5	;RP0=0, select bank0
  2010  135A  1303               	bcf	3,6	;RP1=0, select bank0
  2011  135B  0185               	clrf	5	;volatile
  2012                           
  2013                           ;lab4.c: 196:     PORTB = 0x00;
  2014  135C  0186               	clrf	6	;volatile
  2015                           
  2016                           ;lab4.c: 197:     PORTC = 0x00;
  2017  135D  0187               	clrf	7	;volatile
  2018                           
  2019                           ;lab4.c: 198:     PORTD = 0x00;
  2020  135E  0188               	clrf	8	;volatile
  2021                           
  2022                           ;lab4.c: 199:     PORTE = 0x00;
  2023  135F  0189               	clrf	9	;volatile
  2024  1360                     l3368:
  2025                           
  2026                           ;lab4.c: 202:     OSCCONbits.IRCF0 = 0;
  2027  1360  1683               	bsf	3,5	;RP0=1, select bank1
  2028  1361  1303               	bcf	3,6	;RP1=0, select bank1
  2029  1362  120F               	bcf	15,4	;volatile
  2030  1363                     l3370:
  2031                           
  2032                           ;lab4.c: 203:     OSCCONbits.IRCF1 = 1;
  2033  1363  168F               	bsf	15,5	;volatile
  2034  1364                     l3372:
  2035                           
  2036                           ;lab4.c: 204:     OSCCONbits.IRCF2 = 1;
  2037  1364  170F               	bsf	15,6	;volatile
  2038  1365                     l3374:
  2039                           
  2040                           ;lab4.c: 205:     OSCCONbits.SCS = 1;
  2041  1365  140F               	bsf	15,0	;volatile
  2042  1366                     l3376:
  2043                           
  2044                           ;lab4.c: 209:     I2C_Master_Init(100000);
  2045  1366  3000               	movlw	0
  2046  1367  1283               	bcf	3,5	;RP0=0, select bank0
  2047  1368  1303               	bcf	3,6	;RP1=0, select bank0
  2048  1369  00A9               	movwf	I2C_Master_Init@c+3
  2049  136A  3001               	movlw	1
  2050  136B  00A8               	movwf	I2C_Master_Init@c+2
  2051  136C  3086               	movlw	134
  2052  136D  00A7               	movwf	I2C_Master_Init@c+1
  2053  136E  30A0               	movlw	160
  2054  136F  00A6               	movwf	I2C_Master_Init@c
  2055  1370  160A  118A  23A4  160A  118A  	fcall	_I2C_Master_Init
  2056  1375                     l225:
  2057  1375  0008               	return
  2058  1376                     __end_of_setup:
  2059                           
  2060                           	psect	text2
  2061  13A4                     __ptext2:	
  2062 ;; *************** function _I2C_Master_Init *****************
  2063 ;; Defined at:
  2064 ;;		line 13 in file "i2c.c"
  2065 ;; Parameters:    Size  Location     Type
  2066 ;;  c               4    6[BANK0 ] const unsigned long 
  2067 ;; Auto vars:     Size  Location     Type
  2068 ;;		None
  2069 ;; Return value:  Size  Location     Type
  2070 ;;                  1    wreg      void 
  2071 ;; Registers used:
  2072 ;;		wreg, status,2, status,0, pclath, cstack
  2073 ;; Tracked objects:
  2074 ;;		On entry : 0/0
  2075 ;;		On exit  : 0/0
  2076 ;;		Unchanged: 0/0
  2077 ;; Data sizes:     COMMON   BANK0   BANK1   BANK3   BANK2
  2078 ;;      Params:         0       4       0       0       0
  2079 ;;      Locals:         0       0       0       0       0
  2080 ;;      Temps:          0       4       0       0       0
  2081 ;;      Totals:         0       8       0       0       0
  2082 ;;Total ram usage:        8 bytes
  2083 ;; Hardware stack levels used: 1
  2084 ;; Hardware stack levels required when called: 2
  2085 ;; This function calls:
  2086 ;;		___lldiv
  2087 ;; This function is called by:
  2088 ;;		_setup
  2089 ;; This function uses a non-reentrant model
  2090 ;;
  2091                           
  2092                           
  2093                           ;psect for function _I2C_Master_Init
  2094  13A4                     _I2C_Master_Init:
  2095  13A4                     l3100:	
  2096                           ;incstack = 0
  2097                           ; Regs used in _I2C_Master_Init: [wreg+status,2+status,0+pclath+cstack]
  2098                           
  2099                           
  2100                           ;i2c.c: 13: void I2C_Master_Init(const unsigned long c);i2c.c: 14: {;i2c.c: 15:     SSPC
      +                          ON = 0b00101000;
  2101  13A4  3028               	movlw	40
  2102  13A5  1283               	bcf	3,5	;RP0=0, select bank0
  2103  13A6  1303               	bcf	3,6	;RP1=0, select bank0
  2104  13A7  0094               	movwf	20	;volatile
  2105  13A8                     l3102:
  2106                           
  2107                           ;i2c.c: 16:     SSPCON2 = 0;
  2108  13A8  1683               	bsf	3,5	;RP0=1, select bank1
  2109  13A9  1303               	bcf	3,6	;RP1=0, select bank1
  2110  13AA  0191               	clrf	17	;volatile
  2111  13AB                     l3104:
  2112                           
  2113                           ;i2c.c: 17:     SSPADD = (8000000/(4*c))-1;
  2114  13AB  1283               	bcf	3,5	;RP0=0, select bank0
  2115  13AC  1303               	bcf	3,6	;RP1=0, select bank0
  2116  13AD  0826               	movf	I2C_Master_Init@c,w
  2117  13AE  00AA               	movwf	??_I2C_Master_Init
  2118  13AF  0827               	movf	I2C_Master_Init@c+1,w
  2119  13B0  00AB               	movwf	??_I2C_Master_Init+1
  2120  13B1  0828               	movf	I2C_Master_Init@c+2,w
  2121  13B2  00AC               	movwf	??_I2C_Master_Init+2
  2122  13B3  0829               	movf	I2C_Master_Init@c+3,w
  2123  13B4  00AD               	movwf	??_I2C_Master_Init+3
  2124  13B5  3002               	movlw	2
  2125  13B6                     u4135:
  2126  13B6  1003               	clrc
  2127  13B7  0DAA               	rlf	??_I2C_Master_Init,f
  2128  13B8  0DAB               	rlf	??_I2C_Master_Init+1,f
  2129  13B9  0DAC               	rlf	??_I2C_Master_Init+2,f
  2130  13BA  0DAD               	rlf	??_I2C_Master_Init+3,f
  2131  13BB                     u4130:
  2132  13BB  3EFF               	addlw	-1
  2133  13BC  1D03               	skipz
  2134  13BD  2BB6               	goto	u4135
  2135  13BE  082D               	movf	??_I2C_Master_Init+3,w
  2136  13BF  00F5               	movwf	___lldiv@divisor+3
  2137  13C0  082C               	movf	??_I2C_Master_Init+2,w
  2138  13C1  00F4               	movwf	___lldiv@divisor+2
  2139  13C2  082B               	movf	??_I2C_Master_Init+1,w
  2140  13C3  00F3               	movwf	___lldiv@divisor+1
  2141  13C4  082A               	movf	??_I2C_Master_Init,w
  2142  13C5  00F2               	movwf	___lldiv@divisor
  2143  13C6  3000               	movlw	0
  2144  13C7  00F9               	movwf	___lldiv@dividend+3
  2145  13C8  307A               	movlw	122
  2146  13C9  00F8               	movwf	___lldiv@dividend+2
  2147  13CA  3012               	movlw	18
  2148  13CB  00F7               	movwf	___lldiv@dividend+1
  2149  13CC  3000               	movlw	0
  2150  13CD  00F6               	movwf	___lldiv@dividend
  2151  13CE  160A  118A  25CF  160A  118A  	fcall	___lldiv
  2152  13D3  0872               	movf	?___lldiv,w
  2153  13D4  3EFF               	addlw	255
  2154  13D5  1683               	bsf	3,5	;RP0=1, select bank1
  2155  13D6  1303               	bcf	3,6	;RP1=0, select bank1
  2156  13D7  0093               	movwf	19	;volatile
  2157  13D8                     l3106:
  2158                           
  2159                           ;i2c.c: 18:     SSPSTAT = 0;
  2160  13D8  0194               	clrf	20	;volatile
  2161  13D9                     l3108:
  2162                           
  2163                           ;i2c.c: 19:     TRISCbits.TRISC3 = 1;
  2164  13D9  1587               	bsf	7,3	;volatile
  2165  13DA                     l3110:
  2166                           
  2167                           ;i2c.c: 20:     TRISCbits.TRISC4 = 1;
  2168  13DA  1607               	bsf	7,4	;volatile
  2169  13DB                     l44:
  2170  13DB  0008               	return
  2171  13DC                     __end_of_I2C_Master_Init:
  2172                           
  2173                           	psect	text3
  2174  15CF                     __ptext3:	
  2175 ;; *************** function ___lldiv *****************
  2176 ;; Defined at:
  2177 ;;		line 5 in file "C:\Program Files\Microchip\xc8\v2.32\pic\sources\c90\common\__lldiv.c"
  2178 ;; Parameters:    Size  Location     Type
  2179 ;;  divisor         4    2[COMMON] unsigned long 
  2180 ;;  dividend        4    6[COMMON] unsigned long 
  2181 ;; Auto vars:     Size  Location     Type
  2182 ;;  quotient        4    1[BANK0 ] unsigned long 
  2183 ;;  counter         1    5[BANK0 ] unsigned char 
  2184 ;; Return value:  Size  Location     Type
  2185 ;;                  4    2[COMMON] unsigned long 
  2186 ;; Registers used:
  2187 ;;		wreg, status,2, status,0
  2188 ;; Tracked objects:
  2189 ;;		On entry : 0/0
  2190 ;;		On exit  : 0/0
  2191 ;;		Unchanged: 0/0
  2192 ;; Data sizes:     COMMON   BANK0   BANK1   BANK3   BANK2
  2193 ;;      Params:         8       0       0       0       0
  2194 ;;      Locals:         0       5       0       0       0
  2195 ;;      Temps:          0       1       0       0       0
  2196 ;;      Totals:         8       6       0       0       0
  2197 ;;Total ram usage:       14 bytes
  2198 ;; Hardware stack levels used: 1
  2199 ;; Hardware stack levels required when called: 1
  2200 ;; This function calls:
  2201 ;;		Nothing
  2202 ;; This function is called by:
  2203 ;;		_I2C_Master_Init
  2204 ;; This function uses a non-reentrant model
  2205 ;;
  2206                           
  2207                           
  2208                           ;psect for function ___lldiv
  2209  15CF                     ___lldiv:
  2210  15CF                     l3062:	
  2211                           ;incstack = 0
  2212                           ; Regs used in ___lldiv: [wreg+status,2+status,0]
  2213                           
  2214  15CF  3000               	movlw	0
  2215  15D0  1283               	bcf	3,5	;RP0=0, select bank0
  2216  15D1  1303               	bcf	3,6	;RP1=0, select bank0
  2217  15D2  00A4               	movwf	___lldiv@quotient+3
  2218  15D3  3000               	movlw	0
  2219  15D4  00A3               	movwf	___lldiv@quotient+2
  2220  15D5  3000               	movlw	0
  2221  15D6  00A2               	movwf	___lldiv@quotient+1
  2222  15D7  3000               	movlw	0
  2223  15D8  00A1               	movwf	___lldiv@quotient
  2224  15D9  0875               	movf	___lldiv@divisor+3,w
  2225  15DA  0474               	iorwf	___lldiv@divisor+2,w
  2226  15DB  0473               	iorwf	___lldiv@divisor+1,w
  2227  15DC  0472               	iorwf	___lldiv@divisor,w
  2228  15DD  1903               	skipnz
  2229  15DE  2DE0               	goto	u4031
  2230  15DF  2DE1               	goto	u4030
  2231  15E0                     u4031:
  2232  15E0  2E2E               	goto	l3082
  2233  15E1                     u4030:
  2234  15E1                     l3064:
  2235  15E1  01A5               	clrf	___lldiv@counter
  2236  15E2  0AA5               	incf	___lldiv@counter,f
  2237  15E3  2DF1               	goto	l3068
  2238  15E4                     l3066:
  2239  15E4  3001               	movlw	1
  2240  15E5  00A0               	movwf	??___lldiv
  2241  15E6                     u4045:
  2242  15E6  1003               	clrc
  2243  15E7  0DF2               	rlf	___lldiv@divisor,f
  2244  15E8  0DF3               	rlf	___lldiv@divisor+1,f
  2245  15E9  0DF4               	rlf	___lldiv@divisor+2,f
  2246  15EA  0DF5               	rlf	___lldiv@divisor+3,f
  2247  15EB  0BA0               	decfsz	??___lldiv,f
  2248  15EC  2DE6               	goto	u4045
  2249  15ED  3001               	movlw	1
  2250  15EE  00A0               	movwf	??___lldiv
  2251  15EF  0820               	movf	??___lldiv,w
  2252  15F0  07A5               	addwf	___lldiv@counter,f
  2253  15F1                     l3068:
  2254  15F1  1FF5               	btfss	___lldiv@divisor+3,7
  2255  15F2  2DF4               	goto	u4051
  2256  15F3  2DF5               	goto	u4050
  2257  15F4                     u4051:
  2258  15F4  2DE4               	goto	l3066
  2259  15F5                     u4050:
  2260  15F5                     l3070:
  2261  15F5  3001               	movlw	1
  2262  15F6  00A0               	movwf	??___lldiv
  2263  15F7                     u4065:
  2264  15F7  1003               	clrc
  2265  15F8  0DA1               	rlf	___lldiv@quotient,f
  2266  15F9  0DA2               	rlf	___lldiv@quotient+1,f
  2267  15FA  0DA3               	rlf	___lldiv@quotient+2,f
  2268  15FB  0DA4               	rlf	___lldiv@quotient+3,f
  2269  15FC  0BA0               	decfsz	??___lldiv,f
  2270  15FD  2DF7               	goto	u4065
  2271  15FE                     l3072:
  2272  15FE  0875               	movf	___lldiv@divisor+3,w
  2273  15FF  0279               	subwf	___lldiv@dividend+3,w
  2274  1600  1D03               	skipz
  2275  1601  2E0C               	goto	u4075
  2276  1602  0874               	movf	___lldiv@divisor+2,w
  2277  1603  0278               	subwf	___lldiv@dividend+2,w
  2278  1604  1D03               	skipz
  2279  1605  2E0C               	goto	u4075
  2280  1606  0873               	movf	___lldiv@divisor+1,w
  2281  1607  0277               	subwf	___lldiv@dividend+1,w
  2282  1608  1D03               	skipz
  2283  1609  2E0C               	goto	u4075
  2284  160A  0872               	movf	___lldiv@divisor,w
  2285  160B  0276               	subwf	___lldiv@dividend,w
  2286  160C                     u4075:
  2287  160C  1C03               	skipc
  2288  160D  2E0F               	goto	u4071
  2289  160E  2E10               	goto	u4070
  2290  160F                     u4071:
  2291  160F  2E1F               	goto	l3078
  2292  1610                     u4070:
  2293  1610                     l3074:
  2294  1610  0872               	movf	___lldiv@divisor,w
  2295  1611  02F6               	subwf	___lldiv@dividend,f
  2296  1612  0873               	movf	___lldiv@divisor+1,w
  2297  1613  1C03               	skipc
  2298  1614  0F73               	incfsz	___lldiv@divisor+1,w
  2299  1615  02F7               	subwf	___lldiv@dividend+1,f
  2300  1616  0874               	movf	___lldiv@divisor+2,w
  2301  1617  1C03               	skipc
  2302  1618  0F74               	incfsz	___lldiv@divisor+2,w
  2303  1619  02F8               	subwf	___lldiv@dividend+2,f
  2304  161A  0875               	movf	___lldiv@divisor+3,w
  2305  161B  1C03               	skipc
  2306  161C  0F75               	incfsz	___lldiv@divisor+3,w
  2307  161D  02F9               	subwf	___lldiv@dividend+3,f
  2308  161E                     l3076:
  2309  161E  1421               	bsf	___lldiv@quotient,0
  2310  161F                     l3078:
  2311  161F  3001               	movlw	1
  2312  1620                     u4085:
  2313  1620  1003               	clrc
  2314  1621  0CF5               	rrf	___lldiv@divisor+3,f
  2315  1622  0CF4               	rrf	___lldiv@divisor+2,f
  2316  1623  0CF3               	rrf	___lldiv@divisor+1,f
  2317  1624  0CF2               	rrf	___lldiv@divisor,f
  2318  1625  3EFF               	addlw	-1
  2319  1626  1D03               	skipz
  2320  1627  2E20               	goto	u4085
  2321  1628                     l3080:
  2322  1628  3001               	movlw	1
  2323  1629  02A5               	subwf	___lldiv@counter,f
  2324  162A  1D03               	btfss	3,2
  2325  162B  2E2D               	goto	u4091
  2326  162C  2E2E               	goto	u4090
  2327  162D                     u4091:
  2328  162D  2DF5               	goto	l3070
  2329  162E                     u4090:
  2330  162E                     l3082:
  2331  162E  0824               	movf	___lldiv@quotient+3,w
  2332  162F  00F5               	movwf	?___lldiv+3
  2333  1630  0823               	movf	___lldiv@quotient+2,w
  2334  1631  00F4               	movwf	?___lldiv+2
  2335  1632  0822               	movf	___lldiv@quotient+1,w
  2336  1633  00F3               	movwf	?___lldiv+1
  2337  1634  0821               	movf	___lldiv@quotient,w
  2338  1635  00F2               	movwf	?___lldiv
  2339  1636                     l376:
  2340  1636  0008               	return
  2341  1637                     __end_of___lldiv:
  2342                           
  2343                           	psect	text4
  2344  1569                     __ptext4:	
  2345 ;; *************** function _division *****************
  2346 ;; Defined at:
  2347 ;;		line 273 in file "lab4.c"
  2348 ;; Parameters:    Size  Location     Type
  2349 ;;  valor           1    wreg     unsigned char 
  2350 ;; Auto vars:     Size  Location     Type
  2351 ;;  valor           1    9[COMMON] unsigned char 
  2352 ;; Return value:  Size  Location     Type
  2353 ;;                  1    wreg      unsigned char 
  2354 ;; Registers used:
  2355 ;;		wreg, status,2, status,0, pclath, cstack
  2356 ;; Tracked objects:
  2357 ;;		On entry : 0/0
  2358 ;;		On exit  : 0/0
  2359 ;;		Unchanged: 0/0
  2360 ;; Data sizes:     COMMON   BANK0   BANK1   BANK3   BANK2
  2361 ;;      Params:         0       0       0       0       0
  2362 ;;      Locals:         1       0       0       0       0
  2363 ;;      Temps:          0       3       0       0       0
  2364 ;;      Totals:         1       3       0       0       0
  2365 ;;Total ram usage:        4 bytes
  2366 ;; Hardware stack levels used: 1
  2367 ;; Hardware stack levels required when called: 2
  2368 ;; This function calls:
  2369 ;;		___awdiv
  2370 ;;		___awmod
  2371 ;; This function is called by:
  2372 ;;		_main
  2373 ;; This function uses a non-reentrant model
  2374 ;;
  2375                           
  2376                           
  2377                           ;psect for function _division
  2378  1569                     _division:
  2379                           
  2380                           ;incstack = 0
  2381                           ; Regs used in _division: [wreg+status,2+status,0+pclath+cstack]
  2382                           ;division@valor stored from wreg
  2383  1569  00F9               	movwf	division@valor
  2384  156A                     l3480:
  2385                           
  2386                           ;lab4.c: 274:     hundreds = valor/100;
  2387  156A  3064               	movlw	100
  2388  156B  00F2               	movwf	___awdiv@divisor
  2389  156C  3000               	movlw	0
  2390  156D  00F3               	movwf	___awdiv@divisor+1
  2391  156E  0879               	movf	division@valor,w
  2392  156F  1283               	bcf	3,5	;RP0=0, select bank0
  2393  1570  1303               	bcf	3,6	;RP1=0, select bank0
  2394  1571  00A4               	movwf	??_division
  2395  1572  01A5               	clrf	??_division+1
  2396  1573  0824               	movf	??_division,w
  2397  1574  00F4               	movwf	___awdiv@dividend
  2398  1575  0825               	movf	??_division+1,w
  2399  1576  00F5               	movwf	___awdiv@dividend+1
  2400  1577  160A  118A  2637  160A  118A  	fcall	___awdiv
  2401  157C  0872               	movf	?___awdiv,w
  2402  157D  1283               	bcf	3,5	;RP0=0, select bank0
  2403  157E  1303               	bcf	3,6	;RP1=0, select bank0
  2404  157F  00A6               	movwf	??_division+2
  2405  1580  0826               	movf	??_division+2,w
  2406  1581  1683               	bsf	3,5	;RP0=1, select bank1
  2407  1582  1303               	bcf	3,6	;RP1=0, select bank1
  2408  1583  00B0               	movwf	_hundreds^(0+128)
  2409                           
  2410                           ;lab4.c: 275:     residuo = valor%100;
  2411  1584  3064               	movlw	100
  2412  1585  00F2               	movwf	___awmod@divisor
  2413  1586  3000               	movlw	0
  2414  1587  00F3               	movwf	___awmod@divisor+1
  2415  1588  0879               	movf	division@valor,w
  2416  1589  1283               	bcf	3,5	;RP0=0, select bank0
  2417  158A  1303               	bcf	3,6	;RP1=0, select bank0
  2418  158B  00A4               	movwf	??_division
  2419  158C  01A5               	clrf	??_division+1
  2420  158D  0824               	movf	??_division,w
  2421  158E  00F4               	movwf	___awmod@dividend
  2422  158F  0825               	movf	??_division+1,w
  2423  1590  00F5               	movwf	___awmod@dividend+1
  2424  1591  160A  118A  24B3  160A  118A  	fcall	___awmod
  2425  1596  0872               	movf	?___awmod,w
  2426  1597  1283               	bcf	3,5	;RP0=0, select bank0
  2427  1598  1303               	bcf	3,6	;RP1=0, select bank0
  2428  1599  00A6               	movwf	??_division+2
  2429  159A  0826               	movf	??_division+2,w
  2430  159B  00FA               	movwf	_residuo
  2431                           
  2432                           ;lab4.c: 276:     tens = residuo/10;
  2433  159C  300A               	movlw	10
  2434  159D  00F2               	movwf	___awdiv@divisor
  2435  159E  3000               	movlw	0
  2436  159F  00F3               	movwf	___awdiv@divisor+1
  2437  15A0  087A               	movf	_residuo,w
  2438  15A1  00A4               	movwf	??_division
  2439  15A2  01A5               	clrf	??_division+1
  2440  15A3  0824               	movf	??_division,w
  2441  15A4  00F4               	movwf	___awdiv@dividend
  2442  15A5  0825               	movf	??_division+1,w
  2443  15A6  00F5               	movwf	___awdiv@dividend+1
  2444  15A7  160A  118A  2637  160A  118A  	fcall	___awdiv
  2445  15AC  0872               	movf	?___awdiv,w
  2446  15AD  1283               	bcf	3,5	;RP0=0, select bank0
  2447  15AE  1303               	bcf	3,6	;RP1=0, select bank0
  2448  15AF  00A6               	movwf	??_division+2
  2449  15B0  0826               	movf	??_division+2,w
  2450  15B1  1683               	bsf	3,5	;RP0=1, select bank1
  2451  15B2  1303               	bcf	3,6	;RP1=0, select bank1
  2452  15B3  00AF               	movwf	_tens^(0+128)
  2453                           
  2454                           ;lab4.c: 277:     units = residuo%10;
  2455  15B4  300A               	movlw	10
  2456  15B5  00F2               	movwf	___awmod@divisor
  2457  15B6  3000               	movlw	0
  2458  15B7  00F3               	movwf	___awmod@divisor+1
  2459  15B8  087A               	movf	_residuo,w
  2460  15B9  1283               	bcf	3,5	;RP0=0, select bank0
  2461  15BA  1303               	bcf	3,6	;RP1=0, select bank0
  2462  15BB  00A4               	movwf	??_division
  2463  15BC  01A5               	clrf	??_division+1
  2464  15BD  0824               	movf	??_division,w
  2465  15BE  00F4               	movwf	___awmod@dividend
  2466  15BF  0825               	movf	??_division+1,w
  2467  15C0  00F5               	movwf	___awmod@dividend+1
  2468  15C1  160A  118A  24B3  160A  118A  	fcall	___awmod
  2469  15C6  0872               	movf	?___awmod,w
  2470  15C7  1283               	bcf	3,5	;RP0=0, select bank0
  2471  15C8  1303               	bcf	3,6	;RP1=0, select bank0
  2472  15C9  00A6               	movwf	??_division+2
  2473  15CA  0826               	movf	??_division+2,w
  2474  15CB  1683               	bsf	3,5	;RP0=1, select bank1
  2475  15CC  1303               	bcf	3,6	;RP1=0, select bank1
  2476  15CD  00AE               	movwf	_units^(0+128)
  2477  15CE                     l254:
  2478  15CE  0008               	return
  2479  15CF                     __end_of_division:
  2480                           
  2481                           	psect	text5
  2482  14B3                     __ptext5:	
  2483 ;; *************** function ___awmod *****************
  2484 ;; Defined at:
  2485 ;;		line 5 in file "C:\Program Files\Microchip\xc8\v2.32\pic\sources\c90\common\awmod.c"
  2486 ;; Parameters:    Size  Location     Type
  2487 ;;  divisor         2    2[COMMON] int 
  2488 ;;  dividend        2    4[COMMON] int 
  2489 ;; Auto vars:     Size  Location     Type
  2490 ;;  sign            1    8[COMMON] unsigned char 
  2491 ;;  counter         1    7[COMMON] unsigned char 
  2492 ;; Return value:  Size  Location     Type
  2493 ;;                  2    2[COMMON] int 
  2494 ;; Registers used:
  2495 ;;		wreg, status,2, status,0
  2496 ;; Tracked objects:
  2497 ;;		On entry : 0/0
  2498 ;;		On exit  : 0/0
  2499 ;;		Unchanged: 0/0
  2500 ;; Data sizes:     COMMON   BANK0   BANK1   BANK3   BANK2
  2501 ;;      Params:         4       0       0       0       0
  2502 ;;      Locals:         2       0       0       0       0
  2503 ;;      Temps:          1       0       0       0       0
  2504 ;;      Totals:         7       0       0       0       0
  2505 ;;Total ram usage:        7 bytes
  2506 ;; Hardware stack levels used: 1
  2507 ;; Hardware stack levels required when called: 1
  2508 ;; This function calls:
  2509 ;;		Nothing
  2510 ;; This function is called by:
  2511 ;;		_division
  2512 ;; This function uses a non-reentrant model
  2513 ;;
  2514                           
  2515                           
  2516                           ;psect for function ___awmod
  2517  14B3                     ___awmod:
  2518  14B3                     l2352:	
  2519                           ;incstack = 0
  2520                           ; Regs used in ___awmod: [wreg+status,2+status,0]
  2521                           
  2522  14B3  01F8               	clrf	___awmod@sign
  2523  14B4                     l2354:
  2524  14B4  1FF5               	btfss	___awmod@dividend+1,7
  2525  14B5  2CB7               	goto	u2801
  2526  14B6  2CB8               	goto	u2800
  2527  14B7                     u2801:
  2528  14B7  2CBF               	goto	l2360
  2529  14B8                     u2800:
  2530  14B8                     l2356:
  2531  14B8  09F4               	comf	___awmod@dividend,f
  2532  14B9  09F5               	comf	___awmod@dividend+1,f
  2533  14BA  0AF4               	incf	___awmod@dividend,f
  2534  14BB  1903               	skipnz
  2535  14BC  0AF5               	incf	___awmod@dividend+1,f
  2536  14BD                     l2358:
  2537  14BD  01F8               	clrf	___awmod@sign
  2538  14BE  0AF8               	incf	___awmod@sign,f
  2539  14BF                     l2360:
  2540  14BF  1FF3               	btfss	___awmod@divisor+1,7
  2541  14C0  2CC2               	goto	u2811
  2542  14C1  2CC3               	goto	u2810
  2543  14C2                     u2811:
  2544  14C2  2CC8               	goto	l2364
  2545  14C3                     u2810:
  2546  14C3                     l2362:
  2547  14C3  09F2               	comf	___awmod@divisor,f
  2548  14C4  09F3               	comf	___awmod@divisor+1,f
  2549  14C5  0AF2               	incf	___awmod@divisor,f
  2550  14C6  1903               	skipnz
  2551  14C7  0AF3               	incf	___awmod@divisor+1,f
  2552  14C8                     l2364:
  2553  14C8  0872               	movf	___awmod@divisor,w
  2554  14C9  0473               	iorwf	___awmod@divisor+1,w
  2555  14CA  1903               	btfsc	3,2
  2556  14CB  2CCD               	goto	u2821
  2557  14CC  2CCE               	goto	u2820
  2558  14CD                     u2821:
  2559  14CD  2CFD               	goto	l2382
  2560  14CE                     u2820:
  2561  14CE                     l2366:
  2562  14CE  01F7               	clrf	___awmod@counter
  2563  14CF  0AF7               	incf	___awmod@counter,f
  2564  14D0  2CDC               	goto	l2372
  2565  14D1                     l2368:
  2566  14D1  3001               	movlw	1
  2567  14D2                     u2835:
  2568  14D2  1003               	clrc
  2569  14D3  0DF2               	rlf	___awmod@divisor,f
  2570  14D4  0DF3               	rlf	___awmod@divisor+1,f
  2571  14D5  3EFF               	addlw	-1
  2572  14D6  1D03               	skipz
  2573  14D7  2CD2               	goto	u2835
  2574  14D8                     l2370:
  2575  14D8  3001               	movlw	1
  2576  14D9  00F6               	movwf	??___awmod
  2577  14DA  0876               	movf	??___awmod,w
  2578  14DB  07F7               	addwf	___awmod@counter,f
  2579  14DC                     l2372:
  2580  14DC  1FF3               	btfss	___awmod@divisor+1,7
  2581  14DD  2CDF               	goto	u2841
  2582  14DE  2CE0               	goto	u2840
  2583  14DF                     u2841:
  2584  14DF  2CD1               	goto	l2368
  2585  14E0                     u2840:
  2586  14E0                     l2374:
  2587  14E0  0873               	movf	___awmod@divisor+1,w
  2588  14E1  0275               	subwf	___awmod@dividend+1,w
  2589  14E2  1D03               	skipz
  2590  14E3  2CE6               	goto	u2855
  2591  14E4  0872               	movf	___awmod@divisor,w
  2592  14E5  0274               	subwf	___awmod@dividend,w
  2593  14E6                     u2855:
  2594  14E6  1C03               	skipc
  2595  14E7  2CE9               	goto	u2851
  2596  14E8  2CEA               	goto	u2850
  2597  14E9                     u2851:
  2598  14E9  2CF0               	goto	l2378
  2599  14EA                     u2850:
  2600  14EA                     l2376:
  2601  14EA  0872               	movf	___awmod@divisor,w
  2602  14EB  02F4               	subwf	___awmod@dividend,f
  2603  14EC  0873               	movf	___awmod@divisor+1,w
  2604  14ED  1C03               	skipc
  2605  14EE  03F5               	decf	___awmod@dividend+1,f
  2606  14EF  02F5               	subwf	___awmod@dividend+1,f
  2607  14F0                     l2378:
  2608  14F0  3001               	movlw	1
  2609  14F1                     u2865:
  2610  14F1  1003               	clrc
  2611  14F2  0CF3               	rrf	___awmod@divisor+1,f
  2612  14F3  0CF2               	rrf	___awmod@divisor,f
  2613  14F4  3EFF               	addlw	-1
  2614  14F5  1D03               	skipz
  2615  14F6  2CF1               	goto	u2865
  2616  14F7                     l2380:
  2617  14F7  3001               	movlw	1
  2618  14F8  02F7               	subwf	___awmod@counter,f
  2619  14F9  1D03               	btfss	3,2
  2620  14FA  2CFC               	goto	u2871
  2621  14FB  2CFD               	goto	u2870
  2622  14FC                     u2871:
  2623  14FC  2CE0               	goto	l2374
  2624  14FD                     u2870:
  2625  14FD                     l2382:
  2626  14FD  0878               	movf	___awmod@sign,w
  2627  14FE  1903               	btfsc	3,2
  2628  14FF  2D01               	goto	u2881
  2629  1500  2D02               	goto	u2880
  2630  1501                     u2881:
  2631  1501  2D07               	goto	l2386
  2632  1502                     u2880:
  2633  1502                     l2384:
  2634  1502  09F4               	comf	___awmod@dividend,f
  2635  1503  09F5               	comf	___awmod@dividend+1,f
  2636  1504  0AF4               	incf	___awmod@dividend,f
  2637  1505  1903               	skipnz
  2638  1506  0AF5               	incf	___awmod@dividend+1,f
  2639  1507                     l2386:
  2640  1507  0875               	movf	___awmod@dividend+1,w
  2641  1508  00F3               	movwf	?___awmod+1
  2642  1509  0874               	movf	___awmod@dividend,w
  2643  150A  00F2               	movwf	?___awmod
  2644  150B                     l506:
  2645  150B  0008               	return
  2646  150C                     __end_of___awmod:
  2647                           
  2648                           	psect	text6
  2649  1415                     __ptext6:	
  2650 ;; *************** function _Lcd_Write_String *****************
  2651 ;; Defined at:
  2652 ;;		line 95 in file "lcd.c"
  2653 ;; Parameters:    Size  Location     Type
  2654 ;;  a               2    7[COMMON] PTR unsigned char 
  2655 ;;		 -> adc1(10), STR_5(2), cont(10), STR_4(2), 
  2656 ;;		 -> adc0(10), STR_3(3), STR_2(3), STR_1(3), 
  2657 ;; Auto vars:     Size  Location     Type
  2658 ;;  i               2    3[BANK0 ] int 
  2659 ;; Return value:  Size  Location     Type
  2660 ;;                  1    wreg      void 
  2661 ;; Registers used:
  2662 ;;		wreg, fsr0l, fsr0h, status,2, status,0, btemp+1, pclath, cstack
  2663 ;; Tracked objects:
  2664 ;;		On entry : 0/0
  2665 ;;		On exit  : 0/0
  2666 ;;		Unchanged: 0/0
  2667 ;; Data sizes:     COMMON   BANK0   BANK1   BANK3   BANK2
  2668 ;;      Params:         2       0       0       0       0
  2669 ;;      Locals:         0       2       0       0       0
  2670 ;;      Temps:          0       3       0       0       0
  2671 ;;      Totals:         2       5       0       0       0
  2672 ;;Total ram usage:        7 bytes
  2673 ;; Hardware stack levels used: 1
  2674 ;; Hardware stack levels required when called: 3
  2675 ;; This function calls:
  2676 ;;		_Lcd_Write_Char
  2677 ;; This function is called by:
  2678 ;;		_main
  2679 ;; This function uses a non-reentrant model
  2680 ;;
  2681                           
  2682                           
  2683                           ;psect for function _Lcd_Write_String
  2684  1415                     _Lcd_Write_String:
  2685  1415                     l3346:	
  2686                           ;incstack = 0
  2687                           ; Regs used in _Lcd_Write_String: [wreg-fsr0h+status,2+status,0+btemp+1+pclath+cstack]
  2688                           
  2689                           
  2690                           ;lcd.c: 96:     int i;;lcd.c: 97:     for (i = 0; a[i] != '\0'; i++)
  2691  1415  1283               	bcf	3,5	;RP0=0, select bank0
  2692  1416  1303               	bcf	3,6	;RP1=0, select bank0
  2693  1417  01A3               	clrf	Lcd_Write_String@i
  2694  1418  01A4               	clrf	Lcd_Write_String@i+1
  2695  1419  2C3E               	goto	l3352
  2696  141A                     l3348:
  2697                           
  2698                           ;lcd.c: 98:         Lcd_Write_Char(a[i]);
  2699  141A  0823               	movf	Lcd_Write_String@i,w
  2700  141B  0777               	addwf	Lcd_Write_String@a,w
  2701  141C  00A1               	movwf	??_Lcd_Write_String+1
  2702  141D  0878               	movf	Lcd_Write_String@a+1,w
  2703  141E  00A0               	movwf	??_Lcd_Write_String
  2704  141F  1803               	skipnc
  2705  1420  0AA0               	incf	??_Lcd_Write_String,f
  2706  1421  1FA3               	btfss	Lcd_Write_String@i,7
  2707  1422  2C24               	goto	u4750
  2708  1423  03A0               	decf	??_Lcd_Write_String,f
  2709  1424                     u4750:
  2710  1424  1283               	bcf	3,5	;RP0=0, select bank0
  2711  1425  1303               	bcf	3,6	;RP1=0, select bank0
  2712  1426  0820               	movf	??_Lcd_Write_String,w
  2713  1427  00A2               	movwf	??_Lcd_Write_String+2
  2714  1428  0822               	movf	??_Lcd_Write_String+2,w
  2715  1429  00FF               	movwf	btemp+1
  2716  142A  0821               	movf	??_Lcd_Write_String+1,w
  2717  142B  0084               	movwf	4
  2718  142C  120A  118A  27E1  160A  118A  	fcall	stringtab
  2719  1431  160A  118A  23DC  160A  118A  	fcall	_Lcd_Write_Char
  2720  1436                     l3350:
  2721  1436  3001               	movlw	1
  2722  1437  1283               	bcf	3,5	;RP0=0, select bank0
  2723  1438  1303               	bcf	3,6	;RP1=0, select bank0
  2724  1439  07A3               	addwf	Lcd_Write_String@i,f
  2725  143A  1803               	skipnc
  2726  143B  0AA4               	incf	Lcd_Write_String@i+1,f
  2727  143C  3000               	movlw	0
  2728  143D  07A4               	addwf	Lcd_Write_String@i+1,f
  2729  143E                     l3352:
  2730  143E  0823               	movf	Lcd_Write_String@i,w
  2731  143F  0777               	addwf	Lcd_Write_String@a,w
  2732  1440  00A1               	movwf	??_Lcd_Write_String+1
  2733  1441  0878               	movf	Lcd_Write_String@a+1,w
  2734  1442  00A0               	movwf	??_Lcd_Write_String
  2735  1443  1803               	skipnc
  2736  1444  0AA0               	incf	??_Lcd_Write_String,f
  2737  1445  1FA3               	btfss	Lcd_Write_String@i,7
  2738  1446  2C48               	goto	u4760
  2739  1447  03A0               	decf	??_Lcd_Write_String,f
  2740  1448                     u4760:
  2741  1448  1283               	bcf	3,5	;RP0=0, select bank0
  2742  1449  1303               	bcf	3,6	;RP1=0, select bank0
  2743  144A  0820               	movf	??_Lcd_Write_String,w
  2744  144B  00A2               	movwf	??_Lcd_Write_String+2
  2745  144C  0822               	movf	??_Lcd_Write_String+2,w
  2746  144D  00FF               	movwf	btemp+1
  2747  144E  0821               	movf	??_Lcd_Write_String+1,w
  2748  144F  0084               	movwf	4
  2749  1450  120A  118A  27E1  160A  118A  	fcall	stringtab
  2750  1455  3A00               	xorlw	0
  2751  1456  1D03               	skipz
  2752  1457  2C59               	goto	u4771
  2753  1458  2C5A               	goto	u4770
  2754  1459                     u4771:
  2755  1459  2C1A               	goto	l3348
  2756  145A                     u4770:
  2757  145A                     l119:
  2758  145A  0008               	return
  2759  145B                     __end_of_Lcd_Write_String:
  2760                           
  2761                           	psect	text7
  2762  13DC                     __ptext7:	
  2763 ;; *************** function _Lcd_Write_Char *****************
  2764 ;; Defined at:
  2765 ;;		line 80 in file "lcd.c"
  2766 ;; Parameters:    Size  Location     Type
  2767 ;;  a               1    wreg     unsigned char 
  2768 ;; Auto vars:     Size  Location     Type
  2769 ;;  a               1    6[COMMON] unsigned char 
  2770 ;;  y               1    5[COMMON] unsigned char 
  2771 ;;  temp            1    4[COMMON] unsigned char 
  2772 ;; Return value:  Size  Location     Type
  2773 ;;                  1    wreg      void 
  2774 ;; Registers used:
  2775 ;;		wreg, status,2, status,0, pclath, cstack
  2776 ;; Tracked objects:
  2777 ;;		On entry : 0/0
  2778 ;;		On exit  : 0/0
  2779 ;;		Unchanged: 0/0
  2780 ;; Data sizes:     COMMON   BANK0   BANK1   BANK3   BANK2
  2781 ;;      Params:         0       0       0       0       0
  2782 ;;      Locals:         3       0       0       0       0
  2783 ;;      Temps:          1       0       0       0       0
  2784 ;;      Totals:         4       0       0       0       0
  2785 ;;Total ram usage:        4 bytes
  2786 ;; Hardware stack levels used: 1
  2787 ;; Hardware stack levels required when called: 2
  2788 ;; This function calls:
  2789 ;;		_Lcd_Port
  2790 ;; This function is called by:
  2791 ;;		_Lcd_Write_String
  2792 ;; This function uses a non-reentrant model
  2793 ;;
  2794                           
  2795                           
  2796                           ;psect for function _Lcd_Write_Char
  2797  13DC                     _Lcd_Write_Char:
  2798                           
  2799                           ;incstack = 0
  2800                           ; Regs used in _Lcd_Write_Char: [wreg+status,2+status,0+pclath+cstack]
  2801                           ;Lcd_Write_Char@a stored from wreg
  2802  13DC  00F6               	movwf	Lcd_Write_Char@a
  2803  13DD                     l2274:
  2804                           
  2805                           ;lcd.c: 81:     char temp, y;;lcd.c: 82:     temp = a & 0x0F;
  2806  13DD  0876               	movf	Lcd_Write_Char@a,w
  2807  13DE  390F               	andlw	15
  2808  13DF  00F3               	movwf	??_Lcd_Write_Char
  2809  13E0  0873               	movf	??_Lcd_Write_Char,w
  2810  13E1  00F4               	movwf	Lcd_Write_Char@temp
  2811                           
  2812                           ;lcd.c: 83:     y = a & 0xF0;
  2813  13E2  0876               	movf	Lcd_Write_Char@a,w
  2814  13E3  39F0               	andlw	240
  2815  13E4  00F3               	movwf	??_Lcd_Write_Char
  2816  13E5  0873               	movf	??_Lcd_Write_Char,w
  2817  13E6  00F5               	movwf	Lcd_Write_Char@y
  2818  13E7                     l2276:
  2819                           
  2820                           ;lcd.c: 84:     RE0 = 1;
  2821  13E7  1283               	bcf	3,5	;RP0=0, select bank0
  2822  13E8  1303               	bcf	3,6	;RP1=0, select bank0
  2823  13E9  1409               	bsf	9,0	;volatile
  2824  13EA                     l2278:
  2825                           
  2826                           ;lcd.c: 85:     Lcd_Port(y >> 4);
  2827  13EA  0875               	movf	Lcd_Write_Char@y,w
  2828  13EB  00F3               	movwf	??_Lcd_Write_Char
  2829  13EC  3004               	movlw	4
  2830  13ED                     u2655:
  2831  13ED  1003               	clrc
  2832  13EE  0CF3               	rrf	??_Lcd_Write_Char,f
  2833  13EF  3EFF               	addlw	-1
  2834  13F0  1D03               	skipz
  2835  13F1  2BED               	goto	u2655
  2836  13F2  0873               	movf	??_Lcd_Write_Char,w
  2837  13F3  160A  118A  22B4  160A  118A  	fcall	_Lcd_Port
  2838  13F8                     l2280:
  2839                           
  2840                           ;lcd.c: 86:     RE1 = 1;
  2841  13F8  1283               	bcf	3,5	;RP0=0, select bank0
  2842  13F9  1303               	bcf	3,6	;RP1=0, select bank0
  2843  13FA  1489               	bsf	9,1	;volatile
  2844  13FB                     l2282:
  2845                           
  2846                           ;lcd.c: 87:     _delay((unsigned long)((40)*(8000000/4000000.0)));
  2847  13FB  301A               	movlw	26
  2848  13FC  00F3               	movwf	??_Lcd_Write_Char
  2849  13FD                     u4937:
  2850  13FD  0BF3               	decfsz	??_Lcd_Write_Char,f
  2851  13FE  2BFD               	goto	u4937
  2852  13FF  0000               	nop
  2853  1400                     l2284:
  2854                           
  2855                           ;lcd.c: 88:     RE1 = 0;
  2856  1400  1283               	bcf	3,5	;RP0=0, select bank0
  2857  1401  1303               	bcf	3,6	;RP1=0, select bank0
  2858  1402  1089               	bcf	9,1	;volatile
  2859  1403                     l2286:
  2860                           
  2861                           ;lcd.c: 89:     Lcd_Port(temp);
  2862  1403  0874               	movf	Lcd_Write_Char@temp,w
  2863  1404  160A  118A  22B4  160A  118A  	fcall	_Lcd_Port
  2864  1409                     l2288:
  2865                           
  2866                           ;lcd.c: 90:     RE1 = 1;
  2867  1409  1283               	bcf	3,5	;RP0=0, select bank0
  2868  140A  1303               	bcf	3,6	;RP1=0, select bank0
  2869  140B  1489               	bsf	9,1	;volatile
  2870  140C                     l2290:
  2871                           
  2872                           ;lcd.c: 91:     _delay((unsigned long)((40)*(8000000/4000000.0)));
  2873  140C  301A               	movlw	26
  2874  140D  00F3               	movwf	??_Lcd_Write_Char
  2875  140E                     u4947:
  2876  140E  0BF3               	decfsz	??_Lcd_Write_Char,f
  2877  140F  2C0E               	goto	u4947
  2878  1410  0000               	nop
  2879  1411                     l2292:
  2880                           
  2881                           ;lcd.c: 92:     RE1 = 0;
  2882  1411  1283               	bcf	3,5	;RP0=0, select bank0
  2883  1412  1303               	bcf	3,6	;RP1=0, select bank0
  2884  1413  1089               	bcf	9,1	;volatile
  2885  1414                     l113:
  2886  1414  0008               	return
  2887  1415                     __end_of_Lcd_Write_Char:
  2888                           
  2889                           	psect	text8
  2890  145B                     __ptext8:	
  2891 ;; *************** function _Lcd_Set_Cursor *****************
  2892 ;; Defined at:
  2893 ;;		line 45 in file "lcd.c"
  2894 ;; Parameters:    Size  Location     Type
  2895 ;;  a               1    wreg     unsigned char 
  2896 ;;  b               1    6[COMMON] unsigned char 
  2897 ;; Auto vars:     Size  Location     Type
  2898 ;;  a               1    0[BANK0 ] unsigned char 
  2899 ;;  temp            1    3[BANK0 ] unsigned char 
  2900 ;;  y               1    2[BANK0 ] unsigned char 
  2901 ;;  z               1    1[BANK0 ] unsigned char 
  2902 ;; Return value:  Size  Location     Type
  2903 ;;                  1    wreg      void 
  2904 ;; Registers used:
  2905 ;;		wreg, status,2, status,0, pclath, cstack
  2906 ;; Tracked objects:
  2907 ;;		On entry : 0/0
  2908 ;;		On exit  : 0/0
  2909 ;;		Unchanged: 0/0
  2910 ;; Data sizes:     COMMON   BANK0   BANK1   BANK3   BANK2
  2911 ;;      Params:         1       0       0       0       0
  2912 ;;      Locals:         0       4       0       0       0
  2913 ;;      Temps:          2       0       0       0       0
  2914 ;;      Totals:         3       4       0       0       0
  2915 ;;Total ram usage:        7 bytes
  2916 ;; Hardware stack levels used: 1
  2917 ;; Hardware stack levels required when called: 3
  2918 ;; This function calls:
  2919 ;;		_Lcd_Cmd
  2920 ;; This function is called by:
  2921 ;;		_main
  2922 ;; This function uses a non-reentrant model
  2923 ;;
  2924                           
  2925                           
  2926                           ;psect for function _Lcd_Set_Cursor
  2927  145B                     _Lcd_Set_Cursor:
  2928                           
  2929                           ;incstack = 0
  2930                           ; Regs used in _Lcd_Set_Cursor: [wreg+status,2+status,0+pclath+cstack]
  2931                           ;Lcd_Set_Cursor@a stored from wreg
  2932  145B  1283               	bcf	3,5	;RP0=0, select bank0
  2933  145C  1303               	bcf	3,6	;RP1=0, select bank0
  2934  145D  00A0               	movwf	Lcd_Set_Cursor@a
  2935  145E                     l2808:
  2936                           
  2937                           ;lcd.c: 46:     char temp, z, y;;lcd.c: 47:     if (a == 1) {
  2938  145E  0320               	decf	Lcd_Set_Cursor@a,w
  2939  145F  1D03               	btfss	3,2
  2940  1460  2C62               	goto	u3871
  2941  1461  2C63               	goto	u3870
  2942  1462                     u3871:
  2943  1462  2C88               	goto	l2818
  2944  1463                     u3870:
  2945  1463                     l2810:
  2946                           
  2947                           ;lcd.c: 48:         temp = 0x80 + b - 1;
  2948  1463  0876               	movf	Lcd_Set_Cursor@b,w
  2949  1464  3E7F               	addlw	127
  2950  1465  00F7               	movwf	??_Lcd_Set_Cursor
  2951  1466  0877               	movf	??_Lcd_Set_Cursor,w
  2952  1467  00A3               	movwf	Lcd_Set_Cursor@temp
  2953                           
  2954                           ;lcd.c: 49:         z = temp >> 4;
  2955  1468  0823               	movf	Lcd_Set_Cursor@temp,w
  2956  1469  00F7               	movwf	??_Lcd_Set_Cursor
  2957  146A  3004               	movlw	4
  2958  146B                     u3885:
  2959  146B  1003               	clrc
  2960  146C  0CF7               	rrf	??_Lcd_Set_Cursor,f
  2961  146D  3EFF               	addlw	-1
  2962  146E  1D03               	skipz
  2963  146F  2C6B               	goto	u3885
  2964  1470  0877               	movf	??_Lcd_Set_Cursor,w
  2965  1471  00F8               	movwf	??_Lcd_Set_Cursor+1
  2966  1472  0878               	movf	??_Lcd_Set_Cursor+1,w
  2967  1473  00A1               	movwf	Lcd_Set_Cursor@z
  2968  1474                     l2812:
  2969                           
  2970                           ;lcd.c: 50:         y = temp & 0x0F;
  2971  1474  0823               	movf	Lcd_Set_Cursor@temp,w
  2972  1475  390F               	andlw	15
  2973  1476  00F7               	movwf	??_Lcd_Set_Cursor
  2974  1477  0877               	movf	??_Lcd_Set_Cursor,w
  2975  1478  00A2               	movwf	Lcd_Set_Cursor@y
  2976  1479                     l2814:
  2977                           
  2978                           ;lcd.c: 51:         Lcd_Cmd(z);
  2979  1479  0821               	movf	Lcd_Set_Cursor@z,w
  2980  147A  160A  118A  229A  160A  118A  	fcall	_Lcd_Cmd
  2981  147F                     l2816:
  2982                           
  2983                           ;lcd.c: 52:         Lcd_Cmd(y);
  2984  147F  1283               	bcf	3,5	;RP0=0, select bank0
  2985  1480  1303               	bcf	3,6	;RP1=0, select bank0
  2986  1481  0822               	movf	Lcd_Set_Cursor@y,w
  2987  1482  160A  118A  229A  160A  118A  	fcall	_Lcd_Cmd
  2988                           
  2989                           ;lcd.c: 53:     } else if (a == 2) {
  2990  1487  2CB2               	goto	l107
  2991  1488                     l2818:
  2992  1488  3002               	movlw	2
  2993  1489  0620               	xorwf	Lcd_Set_Cursor@a,w
  2994  148A  1D03               	btfss	3,2
  2995  148B  2C8D               	goto	u3891
  2996  148C  2C8E               	goto	u3890
  2997  148D                     u3891:
  2998  148D  2CB2               	goto	l107
  2999  148E                     u3890:
  3000  148E                     l2820:
  3001                           
  3002                           ;lcd.c: 54:         temp = 0xC0 + b - 1;
  3003  148E  0876               	movf	Lcd_Set_Cursor@b,w
  3004  148F  3EBF               	addlw	191
  3005  1490  00F7               	movwf	??_Lcd_Set_Cursor
  3006  1491  0877               	movf	??_Lcd_Set_Cursor,w
  3007  1492  00A3               	movwf	Lcd_Set_Cursor@temp
  3008                           
  3009                           ;lcd.c: 55:         z = temp >> 4;
  3010  1493  0823               	movf	Lcd_Set_Cursor@temp,w
  3011  1494  00F7               	movwf	??_Lcd_Set_Cursor
  3012  1495  3004               	movlw	4
  3013  1496                     u3905:
  3014  1496  1003               	clrc
  3015  1497  0CF7               	rrf	??_Lcd_Set_Cursor,f
  3016  1498  3EFF               	addlw	-1
  3017  1499  1D03               	skipz
  3018  149A  2C96               	goto	u3905
  3019  149B  0877               	movf	??_Lcd_Set_Cursor,w
  3020  149C  00F8               	movwf	??_Lcd_Set_Cursor+1
  3021  149D  0878               	movf	??_Lcd_Set_Cursor+1,w
  3022  149E  00A1               	movwf	Lcd_Set_Cursor@z
  3023  149F                     l2822:
  3024                           
  3025                           ;lcd.c: 56:         y = temp & 0x0F;
  3026  149F  0823               	movf	Lcd_Set_Cursor@temp,w
  3027  14A0  390F               	andlw	15
  3028  14A1  00F7               	movwf	??_Lcd_Set_Cursor
  3029  14A2  0877               	movf	??_Lcd_Set_Cursor,w
  3030  14A3  00A2               	movwf	Lcd_Set_Cursor@y
  3031  14A4                     l2824:
  3032                           
  3033                           ;lcd.c: 57:         Lcd_Cmd(z);
  3034  14A4  0821               	movf	Lcd_Set_Cursor@z,w
  3035  14A5  160A  118A  229A  160A  118A  	fcall	_Lcd_Cmd
  3036  14AA                     l2826:
  3037                           
  3038                           ;lcd.c: 58:         Lcd_Cmd(y);
  3039  14AA  1283               	bcf	3,5	;RP0=0, select bank0
  3040  14AB  1303               	bcf	3,6	;RP1=0, select bank0
  3041  14AC  0822               	movf	Lcd_Set_Cursor@y,w
  3042  14AD  160A  118A  229A  160A  118A  	fcall	_Lcd_Cmd
  3043  14B2                     l107:
  3044  14B2  0008               	return
  3045  14B3                     __end_of_Lcd_Set_Cursor:
  3046                           
  3047                           	psect	text9
  3048  150C                     __ptext9:	
  3049 ;; *************** function _Lcd_Init *****************
  3050 ;; Defined at:
  3051 ;;		line 62 in file "lcd.c"
  3052 ;; Parameters:    Size  Location     Type
  3053 ;;		None
  3054 ;; Auto vars:     Size  Location     Type
  3055 ;;		None
  3056 ;; Return value:  Size  Location     Type
  3057 ;;                  1    wreg      void 
  3058 ;; Registers used:
  3059 ;;		wreg, status,2, status,0, pclath, cstack
  3060 ;; Tracked objects:
  3061 ;;		On entry : 0/0
  3062 ;;		On exit  : 0/0
  3063 ;;		Unchanged: 0/0
  3064 ;; Data sizes:     COMMON   BANK0   BANK1   BANK3   BANK2
  3065 ;;      Params:         0       0       0       0       0
  3066 ;;      Locals:         0       0       0       0       0
  3067 ;;      Temps:          2       0       0       0       0
  3068 ;;      Totals:         2       0       0       0       0
  3069 ;;Total ram usage:        2 bytes
  3070 ;; Hardware stack levels used: 1
  3071 ;; Hardware stack levels required when called: 3
  3072 ;; This function calls:
  3073 ;;		_Lcd_Cmd
  3074 ;;		_Lcd_Port
  3075 ;; This function is called by:
  3076 ;;		_main
  3077 ;; This function uses a non-reentrant model
  3078 ;;
  3079                           
  3080                           
  3081                           ;psect for function _Lcd_Init
  3082  150C                     _Lcd_Init:
  3083  150C                     l2828:	
  3084                           ;incstack = 0
  3085                           ; Regs used in _Lcd_Init: [wreg+status,2+status,0+pclath+cstack]
  3086                           
  3087                           
  3088                           ;lcd.c: 63:     Lcd_Port(0x00);
  3089  150C  3000               	movlw	0
  3090  150D  160A  118A  22B4  160A  118A  	fcall	_Lcd_Port
  3091  1512                     l2830:
  3092                           
  3093                           ;lcd.c: 64:     _delay((unsigned long)((20)*(8000000/4000.0)));
  3094  1512  3034               	movlw	52
  3095  1513  00F7               	movwf	??_Lcd_Init+1
  3096  1514  30F1               	movlw	241
  3097  1515  00F6               	movwf	??_Lcd_Init
  3098  1516                     u4957:
  3099  1516  0BF6               	decfsz	??_Lcd_Init,f
  3100  1517  2D16               	goto	u4957
  3101  1518  0BF7               	decfsz	??_Lcd_Init+1,f
  3102  1519  2D16               	goto	u4957
  3103  151A  2D1B               	nop2
  3104  151B                     l2832:
  3105                           
  3106                           ;lcd.c: 65:     Lcd_Cmd(0x03);
  3107  151B  3003               	movlw	3
  3108  151C  160A  118A  229A  160A  118A  	fcall	_Lcd_Cmd
  3109                           
  3110                           ;lcd.c: 66:     _delay((unsigned long)((5)*(8000000/4000.0)));
  3111  1521  300D               	movlw	13
  3112  1522  00F7               	movwf	??_Lcd_Init+1
  3113  1523  30FB               	movlw	251
  3114  1524  00F6               	movwf	??_Lcd_Init
  3115  1525                     u4967:
  3116  1525  0BF6               	decfsz	??_Lcd_Init,f
  3117  1526  2D25               	goto	u4967
  3118  1527  0BF7               	decfsz	??_Lcd_Init+1,f
  3119  1528  2D25               	goto	u4967
  3120  1529  2D2A               	nop2
  3121  152A                     l2834:
  3122                           
  3123                           ;lcd.c: 67:     Lcd_Cmd(0x03);
  3124  152A  3003               	movlw	3
  3125  152B  160A  118A  229A  160A  118A  	fcall	_Lcd_Cmd
  3126  1530                     l2836:
  3127                           
  3128                           ;lcd.c: 68:     _delay((unsigned long)((11)*(8000000/4000.0)));
  3129  1530  301D               	movlw	29
  3130  1531  00F7               	movwf	??_Lcd_Init+1
  3131  1532  3091               	movlw	145
  3132  1533  00F6               	movwf	??_Lcd_Init
  3133  1534                     u4977:
  3134  1534  0BF6               	decfsz	??_Lcd_Init,f
  3135  1535  2D34               	goto	u4977
  3136  1536  0BF7               	decfsz	??_Lcd_Init+1,f
  3137  1537  2D34               	goto	u4977
  3138                           
  3139                           ;lcd.c: 69:     Lcd_Cmd(0x03);
  3140  1538  3003               	movlw	3
  3141  1539  160A  118A  229A  160A  118A  	fcall	_Lcd_Cmd
  3142                           
  3143                           ;lcd.c: 71:     Lcd_Cmd(0x02);
  3144  153E  3002               	movlw	2
  3145  153F  160A  118A  229A  160A  118A  	fcall	_Lcd_Cmd
  3146                           
  3147                           ;lcd.c: 72:     Lcd_Cmd(0x02);
  3148  1544  3002               	movlw	2
  3149  1545  160A  118A  229A  160A  118A  	fcall	_Lcd_Cmd
  3150                           
  3151                           ;lcd.c: 73:     Lcd_Cmd(0x08);
  3152  154A  3008               	movlw	8
  3153  154B  160A  118A  229A  160A  118A  	fcall	_Lcd_Cmd
  3154                           
  3155                           ;lcd.c: 74:     Lcd_Cmd(0x00);
  3156  1550  3000               	movlw	0
  3157  1551  160A  118A  229A  160A  118A  	fcall	_Lcd_Cmd
  3158                           
  3159                           ;lcd.c: 75:     Lcd_Cmd(0x0C);
  3160  1556  300C               	movlw	12
  3161  1557  160A  118A  229A  160A  118A  	fcall	_Lcd_Cmd
  3162                           
  3163                           ;lcd.c: 76:     Lcd_Cmd(0x00);
  3164  155C  3000               	movlw	0
  3165  155D  160A  118A  229A  160A  118A  	fcall	_Lcd_Cmd
  3166                           
  3167                           ;lcd.c: 77:     Lcd_Cmd(0x06);
  3168  1562  3006               	movlw	6
  3169  1563  160A  118A  229A  160A  118A  	fcall	_Lcd_Cmd
  3170  1568                     l110:
  3171  1568  0008               	return
  3172  1569                     __end_of_Lcd_Init:
  3173                           
  3174                           	psect	text10
  3175  128D                     __ptext10:	
  3176 ;; *************** function _Lcd_Clear *****************
  3177 ;; Defined at:
  3178 ;;		line 40 in file "lcd.c"
  3179 ;; Parameters:    Size  Location     Type
  3180 ;;		None
  3181 ;; Auto vars:     Size  Location     Type
  3182 ;;		None
  3183 ;; Return value:  Size  Location     Type
  3184 ;;                  1    wreg      void 
  3185 ;; Registers used:
  3186 ;;		wreg, status,2, status,0, pclath, cstack
  3187 ;; Tracked objects:
  3188 ;;		On entry : 0/0
  3189 ;;		On exit  : 0/0
  3190 ;;		Unchanged: 0/0
  3191 ;; Data sizes:     COMMON   BANK0   BANK1   BANK3   BANK2
  3192 ;;      Params:         0       0       0       0       0
  3193 ;;      Locals:         0       0       0       0       0
  3194 ;;      Temps:          0       0       0       0       0
  3195 ;;      Totals:         0       0       0       0       0
  3196 ;;Total ram usage:        0 bytes
  3197 ;; Hardware stack levels used: 1
  3198 ;; Hardware stack levels required when called: 3
  3199 ;; This function calls:
  3200 ;;		_Lcd_Cmd
  3201 ;; This function is called by:
  3202 ;;		_main
  3203 ;; This function uses a non-reentrant model
  3204 ;;
  3205                           
  3206                           
  3207                           ;psect for function _Lcd_Clear
  3208  128D                     _Lcd_Clear:
  3209  128D                     l2806:	
  3210                           ;incstack = 0
  3211                           ; Regs used in _Lcd_Clear: [wreg+status,2+status,0+pclath+cstack]
  3212                           
  3213                           
  3214                           ;lcd.c: 41:     Lcd_Cmd(0);
  3215  128D  3000               	movlw	0
  3216  128E  160A  118A  229A  160A  118A  	fcall	_Lcd_Cmd
  3217                           
  3218                           ;lcd.c: 42:     Lcd_Cmd(1);
  3219  1293  3001               	movlw	1
  3220  1294  160A  118A  229A  160A  118A  	fcall	_Lcd_Cmd
  3221  1299                     l101:
  3222  1299  0008               	return
  3223  129A                     __end_of_Lcd_Clear:
  3224                           
  3225                           	psect	text11
  3226  129A                     __ptext11:	
  3227 ;; *************** function _Lcd_Cmd *****************
  3228 ;; Defined at:
  3229 ;;		line 32 in file "lcd.c"
  3230 ;; Parameters:    Size  Location     Type
  3231 ;;  a               1    wreg     unsigned char 
  3232 ;; Auto vars:     Size  Location     Type
  3233 ;;  a               1    5[COMMON] unsigned char 
  3234 ;; Return value:  Size  Location     Type
  3235 ;;                  1    wreg      void 
  3236 ;; Registers used:
  3237 ;;		wreg, status,2, status,0, pclath, cstack
  3238 ;; Tracked objects:
  3239 ;;		On entry : 0/0
  3240 ;;		On exit  : 0/0
  3241 ;;		Unchanged: 0/0
  3242 ;; Data sizes:     COMMON   BANK0   BANK1   BANK3   BANK2
  3243 ;;      Params:         0       0       0       0       0
  3244 ;;      Locals:         1       0       0       0       0
  3245 ;;      Temps:          2       0       0       0       0
  3246 ;;      Totals:         3       0       0       0       0
  3247 ;;Total ram usage:        3 bytes
  3248 ;; Hardware stack levels used: 1
  3249 ;; Hardware stack levels required when called: 2
  3250 ;; This function calls:
  3251 ;;		_Lcd_Port
  3252 ;; This function is called by:
  3253 ;;		_Lcd_Clear
  3254 ;;		_Lcd_Set_Cursor
  3255 ;;		_Lcd_Init
  3256 ;;		_Lcd_Shift_Right
  3257 ;;		_Lcd_Shift_Left
  3258 ;; This function uses a non-reentrant model
  3259 ;;
  3260                           
  3261                           
  3262                           ;psect for function _Lcd_Cmd
  3263  129A                     _Lcd_Cmd:
  3264                           
  3265                           ;incstack = 0
  3266                           ; Regs used in _Lcd_Cmd: [wreg+status,2+status,0+pclath+cstack]
  3267                           ;Lcd_Cmd@a stored from wreg
  3268  129A  00F5               	movwf	Lcd_Cmd@a
  3269  129B                     l2264:
  3270                           
  3271                           ;lcd.c: 33:     RE0 = 0;
  3272  129B  1283               	bcf	3,5	;RP0=0, select bank0
  3273  129C  1303               	bcf	3,6	;RP1=0, select bank0
  3274  129D  1009               	bcf	9,0	;volatile
  3275  129E                     l2266:
  3276                           
  3277                           ;lcd.c: 34:     Lcd_Port(a);
  3278  129E  0875               	movf	Lcd_Cmd@a,w
  3279  129F  160A  118A  22B4  160A  118A  	fcall	_Lcd_Port
  3280  12A4                     l2268:
  3281                           
  3282                           ;lcd.c: 35:     RE1 = 1;
  3283  12A4  1283               	bcf	3,5	;RP0=0, select bank0
  3284  12A5  1303               	bcf	3,6	;RP1=0, select bank0
  3285  12A6  1489               	bsf	9,1	;volatile
  3286  12A7                     l2270:
  3287                           
  3288                           ;lcd.c: 36:     _delay((unsigned long)((4)*(8000000/4000.0)));
  3289  12A7  300B               	movlw	11
  3290  12A8  00F4               	movwf	??_Lcd_Cmd+1
  3291  12A9  3062               	movlw	98
  3292  12AA  00F3               	movwf	??_Lcd_Cmd
  3293  12AB                     u4987:
  3294  12AB  0BF3               	decfsz	??_Lcd_Cmd,f
  3295  12AC  2AAB               	goto	u4987
  3296  12AD  0BF4               	decfsz	??_Lcd_Cmd+1,f
  3297  12AE  2AAB               	goto	u4987
  3298  12AF  0000               	nop
  3299  12B0                     l2272:
  3300                           
  3301                           ;lcd.c: 37:     RE1 = 0;
  3302  12B0  1283               	bcf	3,5	;RP0=0, select bank0
  3303  12B1  1303               	bcf	3,6	;RP1=0, select bank0
  3304  12B2  1089               	bcf	9,1	;volatile
  3305  12B3                     l98:
  3306  12B3  0008               	return
  3307  12B4                     __end_of_Lcd_Cmd:
  3308                           
  3309                           	psect	text12
  3310  12B4                     __ptext12:	
  3311 ;; *************** function _Lcd_Port *****************
  3312 ;; Defined at:
  3313 ;;		line 10 in file "lcd.c"
  3314 ;; Parameters:    Size  Location     Type
  3315 ;;  a               1    wreg     unsigned char 
  3316 ;; Auto vars:     Size  Location     Type
  3317 ;;  a               1    2[COMMON] unsigned char 
  3318 ;; Return value:  Size  Location     Type
  3319 ;;                  1    wreg      void 
  3320 ;; Registers used:
  3321 ;;		wreg
  3322 ;; Tracked objects:
  3323 ;;		On entry : 0/0
  3324 ;;		On exit  : 0/0
  3325 ;;		Unchanged: 0/0
  3326 ;; Data sizes:     COMMON   BANK0   BANK1   BANK3   BANK2
  3327 ;;      Params:         0       0       0       0       0
  3328 ;;      Locals:         1       0       0       0       0
  3329 ;;      Temps:          0       0       0       0       0
  3330 ;;      Totals:         1       0       0       0       0
  3331 ;;Total ram usage:        1 bytes
  3332 ;; Hardware stack levels used: 1
  3333 ;; Hardware stack levels required when called: 1
  3334 ;; This function calls:
  3335 ;;		Nothing
  3336 ;; This function is called by:
  3337 ;;		_Lcd_Cmd
  3338 ;;		_Lcd_Init
  3339 ;;		_Lcd_Write_Char
  3340 ;; This function uses a non-reentrant model
  3341 ;;
  3342                           
  3343                           
  3344                           ;psect for function _Lcd_Port
  3345  12B4                     _Lcd_Port:
  3346                           
  3347                           ;incstack = 0
  3348                           ; Regs used in _Lcd_Port: [wreg]
  3349                           ;Lcd_Port@a stored from wreg
  3350  12B4  00F2               	movwf	Lcd_Port@a
  3351  12B5                     l2006:
  3352                           
  3353                           ;lcd.c: 11:     if (a & 1)
  3354  12B5  1C72               	btfss	Lcd_Port@a,0
  3355  12B6  2AB8               	goto	u2021
  3356  12B7  2AB9               	goto	u2020
  3357  12B8                     u2021:
  3358  12B8  2ABD               	goto	l87
  3359  12B9                     u2020:
  3360  12B9                     l2008:
  3361                           
  3362                           ;lcd.c: 12:         RC2 = 1;
  3363  12B9  1283               	bcf	3,5	;RP0=0, select bank0
  3364  12BA  1303               	bcf	3,6	;RP1=0, select bank0
  3365  12BB  1507               	bsf	7,2	;volatile
  3366  12BC  2AC0               	goto	l88
  3367  12BD                     l87:	
  3368                           ;lcd.c: 13:     else
  3369                           
  3370                           
  3371                           ;lcd.c: 14:         RC2 = 0;
  3372  12BD  1283               	bcf	3,5	;RP0=0, select bank0
  3373  12BE  1303               	bcf	3,6	;RP1=0, select bank0
  3374  12BF  1107               	bcf	7,2	;volatile
  3375  12C0                     l88:
  3376                           
  3377                           ;lcd.c: 16:     if (a & 2)
  3378  12C0  1CF2               	btfss	Lcd_Port@a,1
  3379  12C1  2AC3               	goto	u2031
  3380  12C2  2AC4               	goto	u2030
  3381  12C3                     u2031:
  3382  12C3  2AC6               	goto	l89
  3383  12C4                     u2030:
  3384  12C4                     l2010:
  3385                           
  3386                           ;lcd.c: 17:         RC1 = 1;
  3387  12C4  1487               	bsf	7,1	;volatile
  3388  12C5  2AC7               	goto	l90
  3389  12C6                     l89:	
  3390                           ;lcd.c: 18:     else
  3391                           
  3392                           
  3393                           ;lcd.c: 19:         RC1 = 0;
  3394  12C6  1087               	bcf	7,1	;volatile
  3395  12C7                     l90:
  3396                           
  3397                           ;lcd.c: 21:     if (a & 4)
  3398  12C7  1D72               	btfss	Lcd_Port@a,2
  3399  12C8  2ACA               	goto	u2041
  3400  12C9  2ACB               	goto	u2040
  3401  12CA                     u2041:
  3402  12CA  2ACD               	goto	l91
  3403  12CB                     u2040:
  3404  12CB                     l2012:
  3405                           
  3406                           ;lcd.c: 22:         RC0 = 1;
  3407  12CB  1407               	bsf	7,0	;volatile
  3408  12CC  2ACE               	goto	l92
  3409  12CD                     l91:	
  3410                           ;lcd.c: 23:     else
  3411                           
  3412                           
  3413                           ;lcd.c: 24:         RC0 = 0;
  3414  12CD  1007               	bcf	7,0	;volatile
  3415  12CE                     l92:
  3416                           
  3417                           ;lcd.c: 26:     if (a & 8)
  3418  12CE  1DF2               	btfss	Lcd_Port@a,3
  3419  12CF  2AD1               	goto	u2051
  3420  12D0  2AD2               	goto	u2050
  3421  12D1                     u2051:
  3422  12D1  2AD4               	goto	l93
  3423  12D2                     u2050:
  3424  12D2                     l2014:
  3425                           
  3426                           ;lcd.c: 27:         RC5 = 1;
  3427  12D2  1687               	bsf	7,5	;volatile
  3428  12D3  2AD5               	goto	l95
  3429  12D4                     l93:	
  3430                           ;lcd.c: 28:     else
  3431                           
  3432                           
  3433                           ;lcd.c: 29:         RC5 = 0;
  3434  12D4  1287               	bcf	7,5	;volatile
  3435  12D5                     l95:
  3436  12D5  0008               	return
  3437  12D6                     __end_of_Lcd_Port:
  3438                           
  3439                           	psect	text13
  3440  1276                     __ptext13:	
  3441 ;; *************** function _I2C_Master_Write *****************
  3442 ;; Defined at:
  3443 ;;		line 62 in file "i2c.c"
  3444 ;; Parameters:    Size  Location     Type
  3445 ;;  d               2    2[COMMON] unsigned int 
  3446 ;; Auto vars:     Size  Location     Type
  3447 ;;		None
  3448 ;; Return value:  Size  Location     Type
  3449 ;;                  1    wreg      void 
  3450 ;; Registers used:
  3451 ;;		wreg, status,2, status,0, pclath, cstack
  3452 ;; Tracked objects:
  3453 ;;		On entry : 0/0
  3454 ;;		On exit  : 0/0
  3455 ;;		Unchanged: 0/0
  3456 ;; Data sizes:     COMMON   BANK0   BANK1   BANK3   BANK2
  3457 ;;      Params:         2       0       0       0       0
  3458 ;;      Locals:         0       0       0       0       0
  3459 ;;      Temps:          0       0       0       0       0
  3460 ;;      Totals:         2       0       0       0       0
  3461 ;;Total ram usage:        2 bytes
  3462 ;; Hardware stack levels used: 1
  3463 ;; Hardware stack levels required when called: 2
  3464 ;; This function calls:
  3465 ;;		_I2C_Master_Wait
  3466 ;; This function is called by:
  3467 ;;		_main
  3468 ;; This function uses a non-reentrant model
  3469 ;;
  3470                           
  3471                           
  3472                           ;psect for function _I2C_Master_Write
  3473  1276                     _I2C_Master_Write:
  3474  1276                     l2786:	
  3475                           ;incstack = 0
  3476                           ; Regs used in _I2C_Master_Write: [wreg+status,2+status,0+pclath+cstack]
  3477                           
  3478                           
  3479                           ;i2c.c: 62: void I2C_Master_Write(unsigned d);i2c.c: 63: {;i2c.c: 64:     I2C_Master_Wai
      +                          t();
  3480  1276  160A  118A  2280  160A  118A  	fcall	_I2C_Master_Wait
  3481  127B                     l2788:
  3482                           
  3483                           ;i2c.c: 65:     SSPBUF = d;
  3484  127B  0872               	movf	I2C_Master_Write@d,w
  3485  127C  1283               	bcf	3,5	;RP0=0, select bank0
  3486  127D  1303               	bcf	3,6	;RP1=0, select bank0
  3487  127E  0093               	movwf	19	;volatile
  3488  127F                     l62:
  3489  127F  0008               	return
  3490  1280                     __end_of_I2C_Master_Write:
  3491                           
  3492                           	psect	text14
  3493  126D                     __ptext14:	
  3494 ;; *************** function _I2C_Master_Stop *****************
  3495 ;; Defined at:
  3496 ;;		line 52 in file "i2c.c"
  3497 ;; Parameters:    Size  Location     Type
  3498 ;;		None
  3499 ;; Auto vars:     Size  Location     Type
  3500 ;;		None
  3501 ;; Return value:  Size  Location     Type
  3502 ;;                  1    wreg      void 
  3503 ;; Registers used:
  3504 ;;		wreg, status,2, status,0, pclath, cstack
  3505 ;; Tracked objects:
  3506 ;;		On entry : 0/0
  3507 ;;		On exit  : 0/0
  3508 ;;		Unchanged: 0/0
  3509 ;; Data sizes:     COMMON   BANK0   BANK1   BANK3   BANK2
  3510 ;;      Params:         0       0       0       0       0
  3511 ;;      Locals:         0       0       0       0       0
  3512 ;;      Temps:          0       0       0       0       0
  3513 ;;      Totals:         0       0       0       0       0
  3514 ;;Total ram usage:        0 bytes
  3515 ;; Hardware stack levels used: 1
  3516 ;; Hardware stack levels required when called: 2
  3517 ;; This function calls:
  3518 ;;		_I2C_Master_Wait
  3519 ;; This function is called by:
  3520 ;;		_main
  3521 ;; This function uses a non-reentrant model
  3522 ;;
  3523                           
  3524                           
  3525                           ;psect for function _I2C_Master_Stop
  3526  126D                     _I2C_Master_Stop:
  3527  126D                     l2782:	
  3528                           ;incstack = 0
  3529                           ; Regs used in _I2C_Master_Stop: [wreg+status,2+status,0+pclath+cstack]
  3530                           
  3531                           
  3532                           ;i2c.c: 54:     I2C_Master_Wait();
  3533  126D  160A  118A  2280  160A  118A  	fcall	_I2C_Master_Wait
  3534  1272                     l2784:
  3535                           
  3536                           ;i2c.c: 55:     SSPCON2bits.PEN = 1;
  3537  1272  1683               	bsf	3,5	;RP0=1, select bank1
  3538  1273  1303               	bcf	3,6	;RP1=0, select bank1
  3539  1274  1511               	bsf	17,2	;volatile
  3540  1275                     l59:
  3541  1275  0008               	return
  3542  1276                     __end_of_I2C_Master_Stop:
  3543                           
  3544                           	psect	text15
  3545  1264                     __ptext15:	
  3546 ;; *************** function _I2C_Master_Start *****************
  3547 ;; Defined at:
  3548 ;;		line 36 in file "i2c.c"
  3549 ;; Parameters:    Size  Location     Type
  3550 ;;		None
  3551 ;; Auto vars:     Size  Location     Type
  3552 ;;		None
  3553 ;; Return value:  Size  Location     Type
  3554 ;;                  1    wreg      void 
  3555 ;; Registers used:
  3556 ;;		wreg, status,2, status,0, pclath, cstack
  3557 ;; Tracked objects:
  3558 ;;		On entry : 0/0
  3559 ;;		On exit  : 0/0
  3560 ;;		Unchanged: 0/0
  3561 ;; Data sizes:     COMMON   BANK0   BANK1   BANK3   BANK2
  3562 ;;      Params:         0       0       0       0       0
  3563 ;;      Locals:         0       0       0       0       0
  3564 ;;      Temps:          0       0       0       0       0
  3565 ;;      Totals:         0       0       0       0       0
  3566 ;;Total ram usage:        0 bytes
  3567 ;; Hardware stack levels used: 1
  3568 ;; Hardware stack levels required when called: 2
  3569 ;; This function calls:
  3570 ;;		_I2C_Master_Wait
  3571 ;; This function is called by:
  3572 ;;		_main
  3573 ;; This function uses a non-reentrant model
  3574 ;;
  3575                           
  3576                           
  3577                           ;psect for function _I2C_Master_Start
  3578  1264                     _I2C_Master_Start:
  3579  1264                     l2778:	
  3580                           ;incstack = 0
  3581                           ; Regs used in _I2C_Master_Start: [wreg+status,2+status,0+pclath+cstack]
  3582                           
  3583                           
  3584                           ;i2c.c: 38:     I2C_Master_Wait();
  3585  1264  160A  118A  2280  160A  118A  	fcall	_I2C_Master_Wait
  3586  1269                     l2780:
  3587                           
  3588                           ;i2c.c: 39:     SSPCON2bits.SEN = 1;
  3589  1269  1683               	bsf	3,5	;RP0=1, select bank1
  3590  126A  1303               	bcf	3,6	;RP1=0, select bank1
  3591  126B  1411               	bsf	17,0	;volatile
  3592  126C                     l53:
  3593  126C  0008               	return
  3594  126D                     __end_of_I2C_Master_Start:
  3595                           
  3596                           	psect	text16
  3597  1376                     __ptext16:	
  3598 ;; *************** function _I2C_Master_Read *****************
  3599 ;; Defined at:
  3600 ;;		line 71 in file "i2c.c"
  3601 ;; Parameters:    Size  Location     Type
  3602 ;;  a               2    2[COMMON] unsigned short 
  3603 ;; Auto vars:     Size  Location     Type
  3604 ;;  temp            2    6[COMMON] unsigned short 
  3605 ;; Return value:  Size  Location     Type
  3606 ;;                  2    2[COMMON] unsigned short 
  3607 ;; Registers used:
  3608 ;;		wreg, status,2, status,0, pclath, cstack
  3609 ;; Tracked objects:
  3610 ;;		On entry : 0/0
  3611 ;;		On exit  : 0/0
  3612 ;;		Unchanged: 0/0
  3613 ;; Data sizes:     COMMON   BANK0   BANK1   BANK3   BANK2
  3614 ;;      Params:         2       0       0       0       0
  3615 ;;      Locals:         2       0       0       0       0
  3616 ;;      Temps:          2       0       0       0       0
  3617 ;;      Totals:         6       0       0       0       0
  3618 ;;Total ram usage:        6 bytes
  3619 ;; Hardware stack levels used: 1
  3620 ;; Hardware stack levels required when called: 2
  3621 ;; This function calls:
  3622 ;;		_I2C_Master_Wait
  3623 ;; This function is called by:
  3624 ;;		_main
  3625 ;; This function uses a non-reentrant model
  3626 ;;
  3627                           
  3628                           
  3629                           ;psect for function _I2C_Master_Read
  3630  1376                     _I2C_Master_Read:
  3631  1376                     l2790:	
  3632                           ;incstack = 0
  3633                           ; Regs used in _I2C_Master_Read: [wreg+status,2+status,0+pclath+cstack]
  3634                           
  3635                           
  3636                           ;i2c.c: 71: unsigned short I2C_Master_Read(unsigned short a);i2c.c: 72: {;i2c.c: 73:    
      +                           unsigned short temp;;i2c.c: 74:     I2C_Master_Wait();
  3637  1376  160A  118A  2280  160A  118A  	fcall	_I2C_Master_Wait
  3638  137B                     l2792:
  3639                           
  3640                           ;i2c.c: 75:     SSPCON2bits.RCEN = 1;
  3641  137B  1683               	bsf	3,5	;RP0=1, select bank1
  3642  137C  1303               	bcf	3,6	;RP1=0, select bank1
  3643  137D  1591               	bsf	17,3	;volatile
  3644                           
  3645                           ;i2c.c: 76:     I2C_Master_Wait();
  3646  137E  160A  118A  2280  160A  118A  	fcall	_I2C_Master_Wait
  3647  1383                     l2794:
  3648                           
  3649                           ;i2c.c: 77:     temp = SSPBUF;
  3650  1383  1283               	bcf	3,5	;RP0=0, select bank0
  3651  1384  1303               	bcf	3,6	;RP1=0, select bank0
  3652  1385  0813               	movf	19,w	;volatile
  3653  1386  00F4               	movwf	??_I2C_Master_Read
  3654  1387  01F5               	clrf	??_I2C_Master_Read+1
  3655  1388  0874               	movf	??_I2C_Master_Read,w
  3656  1389  00F6               	movwf	I2C_Master_Read@temp
  3657  138A  0875               	movf	??_I2C_Master_Read+1,w
  3658  138B  00F7               	movwf	I2C_Master_Read@temp+1
  3659  138C                     l2796:
  3660                           
  3661                           ;i2c.c: 78:     I2C_Master_Wait();
  3662  138C  160A  118A  2280  160A  118A  	fcall	_I2C_Master_Wait
  3663  1391                     l2798:
  3664                           
  3665                           ;i2c.c: 79:     if(a == 1){
  3666  1391  0372               	decf	I2C_Master_Read@a,w
  3667  1392  0473               	iorwf	I2C_Master_Read@a+1,w
  3668  1393  1D03               	btfss	3,2
  3669  1394  2B96               	goto	u3861
  3670  1395  2B97               	goto	u3860
  3671  1396                     u3861:
  3672  1396  2B9B               	goto	l65
  3673  1397                     u3860:
  3674  1397                     l2800:
  3675                           
  3676                           ;i2c.c: 80:         SSPCON2bits.ACKDT = 0;
  3677  1397  1683               	bsf	3,5	;RP0=1, select bank1
  3678  1398  1303               	bcf	3,6	;RP1=0, select bank1
  3679  1399  1291               	bcf	17,5	;volatile
  3680                           
  3681                           ;i2c.c: 81:     }else{
  3682  139A  2B9E               	goto	l66
  3683  139B                     l65:
  3684                           
  3685                           ;i2c.c: 82:         SSPCON2bits.ACKDT = 1;
  3686  139B  1683               	bsf	3,5	;RP0=1, select bank1
  3687  139C  1303               	bcf	3,6	;RP1=0, select bank1
  3688  139D  1691               	bsf	17,5	;volatile
  3689  139E                     l66:	
  3690                           ;i2c.c: 83:     }
  3691                           
  3692                           
  3693                           ;i2c.c: 84:     SSPCON2bits.ACKEN = 1;
  3694  139E  1611               	bsf	17,4	;volatile
  3695  139F                     l2802:
  3696                           
  3697                           ;i2c.c: 85:     return temp;
  3698  139F  0877               	movf	I2C_Master_Read@temp+1,w
  3699  13A0  00F3               	movwf	?_I2C_Master_Read+1
  3700  13A1  0876               	movf	I2C_Master_Read@temp,w
  3701  13A2  00F2               	movwf	?_I2C_Master_Read
  3702  13A3                     l67:
  3703  13A3  0008               	return
  3704  13A4                     __end_of_I2C_Master_Read:
  3705                           
  3706                           	psect	text17
  3707  1280                     __ptext17:	
  3708 ;; *************** function _I2C_Master_Wait *****************
  3709 ;; Defined at:
  3710 ;;		line 29 in file "i2c.c"
  3711 ;; Parameters:    Size  Location     Type
  3712 ;;		None
  3713 ;; Auto vars:     Size  Location     Type
  3714 ;;		None
  3715 ;; Return value:  Size  Location     Type
  3716 ;;                  1    wreg      void 
  3717 ;; Registers used:
  3718 ;;		wreg, status,2
  3719 ;; Tracked objects:
  3720 ;;		On entry : 0/0
  3721 ;;		On exit  : 0/0
  3722 ;;		Unchanged: 0/0
  3723 ;; Data sizes:     COMMON   BANK0   BANK1   BANK3   BANK2
  3724 ;;      Params:         0       0       0       0       0
  3725 ;;      Locals:         0       0       0       0       0
  3726 ;;      Temps:          0       0       0       0       0
  3727 ;;      Totals:         0       0       0       0       0
  3728 ;;Total ram usage:        0 bytes
  3729 ;; Hardware stack levels used: 1
  3730 ;; Hardware stack levels required when called: 1
  3731 ;; This function calls:
  3732 ;;		Nothing
  3733 ;; This function is called by:
  3734 ;;		_I2C_Master_Start
  3735 ;;		_I2C_Master_Stop
  3736 ;;		_I2C_Master_Write
  3737 ;;		_I2C_Master_Read
  3738 ;;		_I2C_Master_RepeatedStart
  3739 ;; This function uses a non-reentrant model
  3740 ;;
  3741                           
  3742                           
  3743                           ;psect for function _I2C_Master_Wait
  3744  1280                     _I2C_Master_Wait:
  3745  1280                     l2260:	
  3746                           ;incstack = 0
  3747                           ; Regs used in _I2C_Master_Wait: [wreg+status,2]
  3748                           
  3749  1280                     l47:	
  3750                           ;i2c.c: 31:     while ((SSPSTAT & 0x04) || (SSPCON2 & 0x1F));
  3751                           
  3752  1280  1683               	bsf	3,5	;RP0=1, select bank1
  3753  1281  1303               	bcf	3,6	;RP1=0, select bank1
  3754  1282  1914               	btfsc	20,2	;volatile
  3755  1283  2A85               	goto	u2631
  3756  1284  2A86               	goto	u2630
  3757  1285                     u2631:
  3758  1285  2A80               	goto	l47
  3759  1286                     u2630:
  3760  1286                     l2262:
  3761  1286  0811               	movf	17,w	;volatile
  3762  1287  391F               	andlw	31
  3763  1288  1D03               	btfss	3,2
  3764  1289  2A8B               	goto	u2641
  3765  128A  2A8C               	goto	u2640
  3766  128B                     u2641:
  3767  128B  2A80               	goto	l47
  3768  128C                     u2640:
  3769  128C                     l50:
  3770  128C  0008               	return
  3771  128D                     __end_of_I2C_Master_Wait:
  3772                           
  3773                           	psect	text18
  3774  001E                     __ptext18:	
  3775 ;; *************** function _ADC_convert *****************
  3776 ;; Defined at:
  3777 ;;		line 215 in file "lab4.c"
  3778 ;; Parameters:    Size  Location     Type
  3779 ;;  data            1    wreg     PTR unsigned char 
  3780 ;;		 -> adc1(10), cont(10), adc0(10), 
  3781 ;;  a               4    0[BANK1 ] float 
  3782 ;;  place           2    4[BANK1 ] int 
  3783 ;; Auto vars:     Size  Location     Type
  3784 ;;  data            1   10[BANK1 ] PTR unsigned char 
  3785 ;;		 -> adc1(10), cont(10), adc0(10), 
  3786 ;;  x               4   11[BANK1 ] float 
  3787 ;;  mu              2   19[BANK1 ] int 
  3788 ;;  digits          2   17[BANK1 ] int 
  3789 ;;  i               2   15[BANK1 ] int 
  3790 ;;  j               2    8[BANK1 ] int 
  3791 ;;  temp            2    6[BANK1 ] int 
  3792 ;; Return value:  Size  Location     Type
  3793 ;;                  1    wreg      void 
  3794 ;; Registers used:
  3795 ;;		wreg, fsr0l, fsr0h, status,2, status,0, btemp+1, pclath, cstack
  3796 ;; Tracked objects:
  3797 ;;		On entry : 0/0
  3798 ;;		On exit  : 0/0
  3799 ;;		Unchanged: 0/0
  3800 ;; Data sizes:     COMMON   BANK0   BANK1   BANK3   BANK2
  3801 ;;      Params:         0       0       6       0       0
  3802 ;;      Locals:         0       0      15       0       0
  3803 ;;      Temps:          0       2       0       0       0
  3804 ;;      Totals:         0       2      21       0       0
  3805 ;;Total ram usage:       23 bytes
  3806 ;; Hardware stack levels used: 1
  3807 ;; Hardware stack levels required when called: 3
  3808 ;; This function calls:
  3809 ;;		___awdiv
  3810 ;;		___fldiv
  3811 ;;		___flge
  3812 ;;		___flmul
  3813 ;;		___flsub
  3814 ;;		___fltol
  3815 ;;		___wmul
  3816 ;;		___xxtofl
  3817 ;; This function is called by:
  3818 ;;		_main
  3819 ;; This function uses a non-reentrant model
  3820 ;;
  3821                           
  3822                           
  3823                           ;psect for function _ADC_convert
  3824  001E                     _ADC_convert:
  3825                           
  3826                           ;incstack = 0
  3827                           ; Regs used in _ADC_convert: [wreg-fsr0h+status,2+status,0+btemp+1+pclath+cstack]
  3828                           ;ADC_convert@data stored from wreg
  3829  001E  1683               	bsf	3,5	;RP0=1, select bank1
  3830  001F  1303               	bcf	3,6	;RP1=0, select bank1
  3831  0020  00DD               	movwf	ADC_convert@data^(0+128)
  3832  0021                     l3378:
  3833                           
  3834                           ;lab4.c: 215: void ADC_convert(char *data,float a, int place);lab4.c: 216: {;lab4.c: 217
      +                          :      int temp=a;
  3835  0021  0856               	movf	(ADC_convert@a+3)^(0+128),w
  3836  0022  00F5               	movwf	___fltol@f1+3
  3837  0023  0855               	movf	(ADC_convert@a+2)^(0+128),w
  3838  0024  00F4               	movwf	___fltol@f1+2
  3839  0025  0854               	movf	(ADC_convert@a+1)^(0+128),w
  3840  0026  00F3               	movwf	___fltol@f1+1
  3841  0027  0853               	movf	ADC_convert@a^(0+128),w
  3842  0028  00F2               	movwf	___fltol@f1
  3843  0029  120A  158A  2007  120A  118A  	fcall	___fltol
  3844  002E  0873               	movf	?___fltol+1,w
  3845  002F  1683               	bsf	3,5	;RP0=1, select bank1
  3846  0030  1303               	bcf	3,6	;RP1=0, select bank1
  3847  0031  00DA               	movwf	(ADC_convert@temp+1)^(0+128)
  3848  0032  0872               	movf	?___fltol,w
  3849  0033  00D9               	movwf	ADC_convert@temp^(0+128)
  3850  0034                     l3380:
  3851  0034                     l3382:
  3852                           
  3853                           ;lab4.c: 219:      int digits=0;
  3854  0034  01E4               	clrf	ADC_convert@digits^(0+128)
  3855  0035  01E5               	clrf	(ADC_convert@digits+1)^(0+128)
  3856  0036                     l3384:
  3857                           
  3858                           ;lab4.c: 220:      int i=0,mu=1;
  3859  0036  01E2               	clrf	ADC_convert@i^(0+128)
  3860  0037  01E3               	clrf	(ADC_convert@i+1)^(0+128)
  3861  0038                     l3386:
  3862  0038  3001               	movlw	1
  3863  0039  00E6               	movwf	ADC_convert@mu^(0+128)
  3864  003A  3000               	movlw	0
  3865  003B  00E7               	movwf	(ADC_convert@mu^(0+128)+1)
  3866  003C                     l3388:
  3867  003C                     l3390:
  3868                           
  3869                           ;lab4.c: 222:      if(a<0)
  3870  003C  0856               	movf	(ADC_convert@a+3)^(0+128),w
  3871  003D  00F5               	movwf	___flge@ff1+3
  3872  003E  0855               	movf	(ADC_convert@a+2)^(0+128),w
  3873  003F  00F4               	movwf	___flge@ff1+2
  3874  0040  0854               	movf	(ADC_convert@a+1)^(0+128),w
  3875  0041  00F3               	movwf	___flge@ff1+1
  3876  0042  0853               	movf	ADC_convert@a^(0+128),w
  3877  0043  00F2               	movwf	___flge@ff1
  3878  0044  3000               	movlw	0
  3879  0045  00F9               	movwf	___flge@ff2+3
  3880  0046  3000               	movlw	0
  3881  0047  00F8               	movwf	___flge@ff2+2
  3882  0048  3000               	movlw	0
  3883  0049  00F7               	movwf	___flge@ff2+1
  3884  004A  3000               	movlw	0
  3885  004B  00F6               	movwf	___flge@ff2
  3886  004C  160A  118A  26A0  120A  118A  	fcall	___flge
  3887  0051  1803               	btfsc	3,0
  3888  0052  2854               	goto	u4781
  3889  0053  2855               	goto	u4780
  3890  0054                     u4781:
  3891  0054  28C3               	goto	l3402
  3892  0055                     u4780:
  3893  0055                     l3392:
  3894                           
  3895                           ;lab4.c: 223:      {;lab4.c: 224:             a=a*-1;
  3896  0055  30BF               	movlw	191
  3897  0056  1283               	bcf	3,5	;RP0=0, select bank0
  3898  0057  1303               	bcf	3,6	;RP1=0, select bank0
  3899  0058  00D4               	movwf	___flmul@b+3
  3900  0059  3080               	movlw	128
  3901  005A  00D3               	movwf	___flmul@b+2
  3902  005B  3000               	movlw	0
  3903  005C  00D2               	movwf	___flmul@b+1
  3904  005D  3000               	movlw	0
  3905  005E  00D1               	movwf	___flmul@b
  3906  005F  1683               	bsf	3,5	;RP0=1, select bank1
  3907  0060  1303               	bcf	3,6	;RP1=0, select bank1
  3908  0061  0856               	movf	(ADC_convert@a+3)^(0+128),w
  3909  0062  1283               	bcf	3,5	;RP0=0, select bank0
  3910  0063  1303               	bcf	3,6	;RP1=0, select bank0
  3911  0064  00D8               	movwf	___flmul@a+3
  3912  0065  1683               	bsf	3,5	;RP0=1, select bank1
  3913  0066  1303               	bcf	3,6	;RP1=0, select bank1
  3914  0067  0855               	movf	(ADC_convert@a+2)^(0+128),w
  3915  0068  1283               	bcf	3,5	;RP0=0, select bank0
  3916  0069  1303               	bcf	3,6	;RP1=0, select bank0
  3917  006A  00D7               	movwf	___flmul@a+2
  3918  006B  1683               	bsf	3,5	;RP0=1, select bank1
  3919  006C  1303               	bcf	3,6	;RP1=0, select bank1
  3920  006D  0854               	movf	(ADC_convert@a+1)^(0+128),w
  3921  006E  1283               	bcf	3,5	;RP0=0, select bank0
  3922  006F  1303               	bcf	3,6	;RP1=0, select bank0
  3923  0070  00D6               	movwf	___flmul@a+1
  3924  0071  1683               	bsf	3,5	;RP0=1, select bank1
  3925  0072  1303               	bcf	3,6	;RP1=0, select bank1
  3926  0073  0853               	movf	ADC_convert@a^(0+128),w
  3927  0074  1283               	bcf	3,5	;RP0=0, select bank0
  3928  0075  1303               	bcf	3,6	;RP1=0, select bank0
  3929  0076  00D5               	movwf	___flmul@a
  3930  0077  120A  118A  2480  120A  118A  	fcall	___flmul
  3931  007C  1283               	bcf	3,5	;RP0=0, select bank0
  3932  007D  1303               	bcf	3,6	;RP1=0, select bank0
  3933  007E  0854               	movf	?___flmul+3,w
  3934  007F  1683               	bsf	3,5	;RP0=1, select bank1
  3935  0080  1303               	bcf	3,6	;RP1=0, select bank1
  3936  0081  00D6               	movwf	(ADC_convert@a+3)^(0+128)
  3937  0082  1283               	bcf	3,5	;RP0=0, select bank0
  3938  0083  1303               	bcf	3,6	;RP1=0, select bank0
  3939  0084  0853               	movf	?___flmul+2,w
  3940  0085  1683               	bsf	3,5	;RP0=1, select bank1
  3941  0086  1303               	bcf	3,6	;RP1=0, select bank1
  3942  0087  00D5               	movwf	(ADC_convert@a+2)^(0+128)
  3943  0088  1283               	bcf	3,5	;RP0=0, select bank0
  3944  0089  1303               	bcf	3,6	;RP1=0, select bank0
  3945  008A  0852               	movf	?___flmul+1,w
  3946  008B  1683               	bsf	3,5	;RP0=1, select bank1
  3947  008C  1303               	bcf	3,6	;RP1=0, select bank1
  3948  008D  00D4               	movwf	(ADC_convert@a+1)^(0+128)
  3949  008E  1283               	bcf	3,5	;RP0=0, select bank0
  3950  008F  1303               	bcf	3,6	;RP1=0, select bank0
  3951  0090  0851               	movf	?___flmul,w
  3952  0091  1683               	bsf	3,5	;RP0=1, select bank1
  3953  0092  1303               	bcf	3,6	;RP1=0, select bank1
  3954  0093  00D3               	movwf	ADC_convert@a^(0+128)
  3955  0094                     l3394:
  3956                           
  3957                           ;lab4.c: 225:             data[i]='-';
  3958  0094  302D               	movlw	45
  3959  0095  1283               	bcf	3,5	;RP0=0, select bank0
  3960  0096  1303               	bcf	3,6	;RP1=0, select bank0
  3961  0097  00EB               	movwf	??_ADC_convert
  3962  0098  1683               	bsf	3,5	;RP0=1, select bank1
  3963  0099  1303               	bcf	3,6	;RP1=0, select bank1
  3964  009A  085D               	movf	ADC_convert@data^(0+128),w
  3965  009B  0084               	movwf	4
  3966  009C  1283               	bcf	3,5	;RP0=0, select bank0
  3967  009D  1303               	bcf	3,6	;RP1=0, select bank0
  3968  009E  086B               	movf	??_ADC_convert,w
  3969  009F  1383               	bcf	3,7	;select IRP bank0
  3970  00A0  0080               	movwf	0
  3971  00A1                     l3396:
  3972                           
  3973                           ;lab4.c: 226:             i++;
  3974  00A1  3001               	movlw	1
  3975  00A2  1683               	bsf	3,5	;RP0=1, select bank1
  3976  00A3  1303               	bcf	3,6	;RP1=0, select bank1
  3977  00A4  07E2               	addwf	ADC_convert@i^(0+128),f
  3978  00A5  1803               	skipnc
  3979  00A6  0AE3               	incf	(ADC_convert@i+1)^(0+128),f
  3980  00A7  3000               	movlw	0
  3981  00A8  07E3               	addwf	(ADC_convert@i+1)^(0+128),f
  3982  00A9  28C3               	goto	l3402
  3983  00AA                     l3398:
  3984                           
  3985                           ;lab4.c: 230:      {;lab4.c: 231:          temp=temp/10;
  3986  00AA  300A               	movlw	10
  3987  00AB  00F2               	movwf	___awdiv@divisor
  3988  00AC  3000               	movlw	0
  3989  00AD  00F3               	movwf	___awdiv@divisor+1
  3990  00AE  085A               	movf	(ADC_convert@temp+1)^(0+128),w
  3991  00AF  00F5               	movwf	___awdiv@dividend+1
  3992  00B0  0859               	movf	ADC_convert@temp^(0+128),w
  3993  00B1  00F4               	movwf	___awdiv@dividend
  3994  00B2  160A  118A  2637  120A  118A  	fcall	___awdiv
  3995  00B7  0873               	movf	?___awdiv+1,w
  3996  00B8  1683               	bsf	3,5	;RP0=1, select bank1
  3997  00B9  1303               	bcf	3,6	;RP1=0, select bank1
  3998  00BA  00DA               	movwf	(ADC_convert@temp+1)^(0+128)
  3999  00BB  0872               	movf	?___awdiv,w
  4000  00BC  00D9               	movwf	ADC_convert@temp^(0+128)
  4001  00BD                     l3400:
  4002                           
  4003                           ;lab4.c: 232:          digits++;
  4004  00BD  3001               	movlw	1
  4005  00BE  07E4               	addwf	ADC_convert@digits^(0+128),f
  4006  00BF  1803               	skipnc
  4007  00C0  0AE5               	incf	(ADC_convert@digits+1)^(0+128),f
  4008  00C1  3000               	movlw	0
  4009  00C2  07E5               	addwf	(ADC_convert@digits+1)^(0+128),f
  4010  00C3                     l3402:
  4011                           
  4012                           ;lab4.c: 229:      while(temp!=0)
  4013  00C3  1683               	bsf	3,5	;RP0=1, select bank1
  4014  00C4  1303               	bcf	3,6	;RP1=0, select bank1
  4015  00C5  0859               	movf	ADC_convert@temp^(0+128),w
  4016  00C6  045A               	iorwf	(ADC_convert@temp+1)^(0+128),w
  4017  00C7  1D03               	btfss	3,2
  4018  00C8  28CA               	goto	u4791
  4019  00C9  28CB               	goto	u4790
  4020  00CA                     u4791:
  4021  00CA  28AA               	goto	l3398
  4022  00CB                     u4790:
  4023  00CB  2A13               	goto	l3426
  4024  00CC                     l3404:
  4025                           
  4026                           ;lab4.c: 235:      {;lab4.c: 236:          if(digits==1)mu=1;
  4027  00CC  0364               	decf	ADC_convert@digits^(0+128),w
  4028  00CD  0465               	iorwf	(ADC_convert@digits+1)^(0+128),w
  4029  00CE  1D03               	btfss	3,2
  4030  00CF  28D1               	goto	u4801
  4031  00D0  28D2               	goto	u4800
  4032  00D1                     u4801:
  4033  00D1  28D7               	goto	l3408
  4034  00D2                     u4800:
  4035  00D2                     l3406:
  4036  00D2  3001               	movlw	1
  4037  00D3  00E6               	movwf	ADC_convert@mu^(0+128)
  4038  00D4  3000               	movlw	0
  4039  00D5  00E7               	movwf	(ADC_convert@mu^(0+128)+1)
  4040  00D6  2919               	goto	l3416
  4041  00D7                     l3408:
  4042  00D7  3002               	movlw	2
  4043  00D8  00DB               	movwf	ADC_convert@j^(0+128)
  4044  00D9  3000               	movlw	0
  4045  00DA  00DC               	movwf	(ADC_convert@j^(0+128)+1)
  4046  00DB  2903               	goto	l3414
  4047  00DC                     l3410:
  4048  00DC  1683               	bsf	3,5	;RP0=1, select bank1
  4049  00DD  1303               	bcf	3,6	;RP1=0, select bank1
  4050  00DE  0867               	movf	(ADC_convert@mu+1)^(0+128),w
  4051  00DF  1283               	bcf	3,5	;RP0=0, select bank0
  4052  00E0  1303               	bcf	3,6	;RP1=0, select bank0
  4053  00E1  00A6               	movwf	___wmul@multiplier+1
  4054  00E2  1683               	bsf	3,5	;RP0=1, select bank1
  4055  00E3  1303               	bcf	3,6	;RP1=0, select bank1
  4056  00E4  0866               	movf	ADC_convert@mu^(0+128),w
  4057  00E5  1283               	bcf	3,5	;RP0=0, select bank0
  4058  00E6  1303               	bcf	3,6	;RP1=0, select bank0
  4059  00E7  00A5               	movwf	___wmul@multiplier
  4060  00E8  300A               	movlw	10
  4061  00E9  00A7               	movwf	___wmul@multiplicand
  4062  00EA  3000               	movlw	0
  4063  00EB  00A8               	movwf	___wmul@multiplicand+1
  4064  00EC  160A  118A  22FA  120A  118A  	fcall	___wmul
  4065  00F1  1283               	bcf	3,5	;RP0=0, select bank0
  4066  00F2  1303               	bcf	3,6	;RP1=0, select bank0
  4067  00F3  0826               	movf	?___wmul+1,w
  4068  00F4  1683               	bsf	3,5	;RP0=1, select bank1
  4069  00F5  1303               	bcf	3,6	;RP1=0, select bank1
  4070  00F6  00E7               	movwf	(ADC_convert@mu+1)^(0+128)
  4071  00F7  1283               	bcf	3,5	;RP0=0, select bank0
  4072  00F8  1303               	bcf	3,6	;RP1=0, select bank0
  4073  00F9  0825               	movf	?___wmul,w
  4074  00FA  1683               	bsf	3,5	;RP0=1, select bank1
  4075  00FB  1303               	bcf	3,6	;RP1=0, select bank1
  4076  00FC  00E6               	movwf	ADC_convert@mu^(0+128)
  4077  00FD                     l3412:
  4078  00FD  3001               	movlw	1
  4079  00FE  07DB               	addwf	ADC_convert@j^(0+128),f
  4080  00FF  1803               	skipnc
  4081  0100  0ADC               	incf	(ADC_convert@j+1)^(0+128),f
  4082  0101  3000               	movlw	0
  4083  0102  07DC               	addwf	(ADC_convert@j+1)^(0+128),f
  4084  0103                     l3414:
  4085  0103  0865               	movf	(ADC_convert@digits+1)^(0+128),w
  4086  0104  3A80               	xorlw	128
  4087  0105  1283               	bcf	3,5	;RP0=0, select bank0
  4088  0106  1303               	bcf	3,6	;RP1=0, select bank0
  4089  0107  00EB               	movwf	??_ADC_convert
  4090  0108  1683               	bsf	3,5	;RP0=1, select bank1
  4091  0109  1303               	bcf	3,6	;RP1=0, select bank1
  4092  010A  085C               	movf	(ADC_convert@j+1)^(0+128),w
  4093  010B  3A80               	xorlw	128
  4094  010C  1283               	bcf	3,5	;RP0=0, select bank0
  4095  010D  1303               	bcf	3,6	;RP1=0, select bank0
  4096  010E  026B               	subwf	??_ADC_convert,w
  4097  010F  1D03               	skipz
  4098  0110  2915               	goto	u4815
  4099  0111  1683               	bsf	3,5	;RP0=1, select bank1
  4100  0112  1303               	bcf	3,6	;RP1=0, select bank1
  4101  0113  085B               	movf	ADC_convert@j^(0+128),w
  4102  0114  0264               	subwf	ADC_convert@digits^(0+128),w
  4103  0115                     u4815:
  4104  0115  1803               	skipnc
  4105  0116  2918               	goto	u4811
  4106  0117  2919               	goto	u4810
  4107  0118                     u4811:
  4108  0118  28DC               	goto	l3410
  4109  0119                     u4810:
  4110  0119                     l3416:
  4111                           
  4112                           ;lab4.c: 239:          x=a/mu;
  4113  0119  1683               	bsf	3,5	;RP0=1, select bank1
  4114  011A  1303               	bcf	3,6	;RP1=0, select bank1
  4115  011B  0866               	movf	ADC_convert@mu^(0+128),w
  4116  011C  1283               	bcf	3,5	;RP0=0, select bank0
  4117  011D  1303               	bcf	3,6	;RP1=0, select bank0
  4118  011E  00A9               	movwf	___xxtofl@val
  4119  011F  1683               	bsf	3,5	;RP0=1, select bank1
  4120  0120  1303               	bcf	3,6	;RP1=0, select bank1
  4121  0121  0867               	movf	(ADC_convert@mu+1)^(0+128),w
  4122  0122  1283               	bcf	3,5	;RP0=0, select bank0
  4123  0123  1303               	bcf	3,6	;RP1=0, select bank0
  4124  0124  00AA               	movwf	___xxtofl@val+1
  4125  0125  3000               	movlw	0
  4126  0126  1BAA               	btfsc	___xxtofl@val+1,7
  4127  0127  30FF               	movlw	255
  4128  0128  00AB               	movwf	___xxtofl@val+2
  4129  0129  00AC               	movwf	___xxtofl@val+3
  4130  012A  3001               	movlw	1
  4131  012B  160A  118A  2744  120A  118A  	fcall	___xxtofl
  4132  0130  1283               	bcf	3,5	;RP0=0, select bank0
  4133  0131  1303               	bcf	3,6	;RP1=0, select bank0
  4134  0132  082C               	movf	?___xxtofl+3,w
  4135  0133  00BA               	movwf	___fldiv@a+3
  4136  0134  082B               	movf	?___xxtofl+2,w
  4137  0135  00B9               	movwf	___fldiv@a+2
  4138  0136  082A               	movf	?___xxtofl+1,w
  4139  0137  00B8               	movwf	___fldiv@a+1
  4140  0138  0829               	movf	?___xxtofl,w
  4141  0139  00B7               	movwf	___fldiv@a
  4142  013A  1683               	bsf	3,5	;RP0=1, select bank1
  4143  013B  1303               	bcf	3,6	;RP1=0, select bank1
  4144  013C  0856               	movf	(ADC_convert@a+3)^(0+128),w
  4145  013D  1283               	bcf	3,5	;RP0=0, select bank0
  4146  013E  1303               	bcf	3,6	;RP1=0, select bank0
  4147  013F  00BE               	movwf	___fldiv@b+3
  4148  0140  1683               	bsf	3,5	;RP0=1, select bank1
  4149  0141  1303               	bcf	3,6	;RP1=0, select bank1
  4150  0142  0855               	movf	(ADC_convert@a+2)^(0+128),w
  4151  0143  1283               	bcf	3,5	;RP0=0, select bank0
  4152  0144  1303               	bcf	3,6	;RP1=0, select bank0
  4153  0145  00BD               	movwf	___fldiv@b+2
  4154  0146  1683               	bsf	3,5	;RP0=1, select bank1
  4155  0147  1303               	bcf	3,6	;RP1=0, select bank1
  4156  0148  0854               	movf	(ADC_convert@a+1)^(0+128),w
  4157  0149  1283               	bcf	3,5	;RP0=0, select bank0
  4158  014A  1303               	bcf	3,6	;RP1=0, select bank0
  4159  014B  00BC               	movwf	___fldiv@b+1
  4160  014C  1683               	bsf	3,5	;RP0=1, select bank1
  4161  014D  1303               	bcf	3,6	;RP1=0, select bank1
  4162  014E  0853               	movf	ADC_convert@a^(0+128),w
  4163  014F  1283               	bcf	3,5	;RP0=0, select bank0
  4164  0150  1303               	bcf	3,6	;RP1=0, select bank0
  4165  0151  00BB               	movwf	___fldiv@b
  4166  0152  120A  158A  2083  120A  118A  	fcall	___fldiv
  4167  0157  1283               	bcf	3,5	;RP0=0, select bank0
  4168  0158  1303               	bcf	3,6	;RP1=0, select bank0
  4169  0159  083A               	movf	?___fldiv+3,w
  4170  015A  1683               	bsf	3,5	;RP0=1, select bank1
  4171  015B  1303               	bcf	3,6	;RP1=0, select bank1
  4172  015C  00E1               	movwf	(ADC_convert@x+3)^(0+128)
  4173  015D  1283               	bcf	3,5	;RP0=0, select bank0
  4174  015E  1303               	bcf	3,6	;RP1=0, select bank0
  4175  015F  0839               	movf	?___fldiv+2,w
  4176  0160  1683               	bsf	3,5	;RP0=1, select bank1
  4177  0161  1303               	bcf	3,6	;RP1=0, select bank1
  4178  0162  00E0               	movwf	(ADC_convert@x+2)^(0+128)
  4179  0163  1283               	bcf	3,5	;RP0=0, select bank0
  4180  0164  1303               	bcf	3,6	;RP1=0, select bank0
  4181  0165  0838               	movf	?___fldiv+1,w
  4182  0166  1683               	bsf	3,5	;RP0=1, select bank1
  4183  0167  1303               	bcf	3,6	;RP1=0, select bank1
  4184  0168  00DF               	movwf	(ADC_convert@x+1)^(0+128)
  4185  0169  1283               	bcf	3,5	;RP0=0, select bank0
  4186  016A  1303               	bcf	3,6	;RP1=0, select bank0
  4187  016B  0837               	movf	?___fldiv,w
  4188  016C  1683               	bsf	3,5	;RP0=1, select bank1
  4189  016D  1303               	bcf	3,6	;RP1=0, select bank1
  4190  016E  00DE               	movwf	ADC_convert@x^(0+128)
  4191                           
  4192                           ;lab4.c: 240:          a=a-((int)x*mu);
  4193  016F  0867               	movf	(ADC_convert@mu+1)^(0+128),w
  4194  0170  1283               	bcf	3,5	;RP0=0, select bank0
  4195  0171  1303               	bcf	3,6	;RP1=0, select bank0
  4196  0172  00A8               	movwf	___wmul@multiplicand+1
  4197  0173  1683               	bsf	3,5	;RP0=1, select bank1
  4198  0174  1303               	bcf	3,6	;RP1=0, select bank1
  4199  0175  0866               	movf	ADC_convert@mu^(0+128),w
  4200  0176  1283               	bcf	3,5	;RP0=0, select bank0
  4201  0177  1303               	bcf	3,6	;RP1=0, select bank0
  4202  0178  00A7               	movwf	___wmul@multiplicand
  4203  0179  1683               	bsf	3,5	;RP0=1, select bank1
  4204  017A  1303               	bcf	3,6	;RP1=0, select bank1
  4205  017B  0861               	movf	(ADC_convert@x+3)^(0+128),w
  4206  017C  00F5               	movwf	___fltol@f1+3
  4207  017D  0860               	movf	(ADC_convert@x+2)^(0+128),w
  4208  017E  00F4               	movwf	___fltol@f1+2
  4209  017F  085F               	movf	(ADC_convert@x+1)^(0+128),w
  4210  0180  00F3               	movwf	___fltol@f1+1
  4211  0181  085E               	movf	ADC_convert@x^(0+128),w
  4212  0182  00F2               	movwf	___fltol@f1
  4213  0183  120A  158A  2007  120A  118A  	fcall	___fltol
  4214  0188  0873               	movf	?___fltol+1,w
  4215  0189  1283               	bcf	3,5	;RP0=0, select bank0
  4216  018A  1303               	bcf	3,6	;RP1=0, select bank0
  4217  018B  00A6               	movwf	___wmul@multiplier+1
  4218  018C  0872               	movf	?___fltol,w
  4219  018D  00A5               	movwf	___wmul@multiplier
  4220  018E  160A  118A  22FA  120A  118A  	fcall	___wmul
  4221  0193  1283               	bcf	3,5	;RP0=0, select bank0
  4222  0194  1303               	bcf	3,6	;RP1=0, select bank0
  4223  0195  0825               	movf	?___wmul,w
  4224  0196  00A9               	movwf	___xxtofl@val
  4225  0197  0826               	movf	?___wmul+1,w
  4226  0198  00AA               	movwf	___xxtofl@val+1
  4227  0199  3000               	movlw	0
  4228  019A  1BAA               	btfsc	___xxtofl@val+1,7
  4229  019B  30FF               	movlw	255
  4230  019C  00AB               	movwf	___xxtofl@val+2
  4231  019D  00AC               	movwf	___xxtofl@val+3
  4232  019E  3001               	movlw	1
  4233  019F  160A  118A  2744  120A  118A  	fcall	___xxtofl
  4234  01A4  1283               	bcf	3,5	;RP0=0, select bank0
  4235  01A5  1303               	bcf	3,6	;RP1=0, select bank0
  4236  01A6  082C               	movf	?___xxtofl+3,w
  4237  01A7  00BA               	movwf	___flsub@a+3
  4238  01A8  082B               	movf	?___xxtofl+2,w
  4239  01A9  00B9               	movwf	___flsub@a+2
  4240  01AA  082A               	movf	?___xxtofl+1,w
  4241  01AB  00B8               	movwf	___flsub@a+1
  4242  01AC  0829               	movf	?___xxtofl,w
  4243  01AD  00B7               	movwf	___flsub@a
  4244  01AE  1683               	bsf	3,5	;RP0=1, select bank1
  4245  01AF  1303               	bcf	3,6	;RP1=0, select bank1
  4246  01B0  0856               	movf	(ADC_convert@a+3)^(0+128),w
  4247  01B1  1283               	bcf	3,5	;RP0=0, select bank0
  4248  01B2  1303               	bcf	3,6	;RP1=0, select bank0
  4249  01B3  00BE               	movwf	___flsub@b+3
  4250  01B4  1683               	bsf	3,5	;RP0=1, select bank1
  4251  01B5  1303               	bcf	3,6	;RP1=0, select bank1
  4252  01B6  0855               	movf	(ADC_convert@a+2)^(0+128),w
  4253  01B7  1283               	bcf	3,5	;RP0=0, select bank0
  4254  01B8  1303               	bcf	3,6	;RP1=0, select bank0
  4255  01B9  00BD               	movwf	___flsub@b+2
  4256  01BA  1683               	bsf	3,5	;RP0=1, select bank1
  4257  01BB  1303               	bcf	3,6	;RP1=0, select bank1
  4258  01BC  0854               	movf	(ADC_convert@a+1)^(0+128),w
  4259  01BD  1283               	bcf	3,5	;RP0=0, select bank0
  4260  01BE  1303               	bcf	3,6	;RP1=0, select bank0
  4261  01BF  00BC               	movwf	___flsub@b+1
  4262  01C0  1683               	bsf	3,5	;RP0=1, select bank1
  4263  01C1  1303               	bcf	3,6	;RP1=0, select bank1
  4264  01C2  0853               	movf	ADC_convert@a^(0+128),w
  4265  01C3  1283               	bcf	3,5	;RP0=0, select bank0
  4266  01C4  1303               	bcf	3,6	;RP1=0, select bank0
  4267  01C5  00BB               	movwf	___flsub@b
  4268  01C6  160A  118A  22D6  120A  118A  	fcall	___flsub
  4269  01CB  1283               	bcf	3,5	;RP0=0, select bank0
  4270  01CC  1303               	bcf	3,6	;RP1=0, select bank0
  4271  01CD  083A               	movf	?___flsub+3,w
  4272  01CE  1683               	bsf	3,5	;RP0=1, select bank1
  4273  01CF  1303               	bcf	3,6	;RP1=0, select bank1
  4274  01D0  00D6               	movwf	(ADC_convert@a+3)^(0+128)
  4275  01D1  1283               	bcf	3,5	;RP0=0, select bank0
  4276  01D2  1303               	bcf	3,6	;RP1=0, select bank0
  4277  01D3  0839               	movf	?___flsub+2,w
  4278  01D4  1683               	bsf	3,5	;RP0=1, select bank1
  4279  01D5  1303               	bcf	3,6	;RP1=0, select bank1
  4280  01D6  00D5               	movwf	(ADC_convert@a+2)^(0+128)
  4281  01D7  1283               	bcf	3,5	;RP0=0, select bank0
  4282  01D8  1303               	bcf	3,6	;RP1=0, select bank0
  4283  01D9  0838               	movf	?___flsub+1,w
  4284  01DA  1683               	bsf	3,5	;RP0=1, select bank1
  4285  01DB  1303               	bcf	3,6	;RP1=0, select bank1
  4286  01DC  00D4               	movwf	(ADC_convert@a+1)^(0+128)
  4287  01DD  1283               	bcf	3,5	;RP0=0, select bank0
  4288  01DE  1303               	bcf	3,6	;RP1=0, select bank0
  4289  01DF  0837               	movf	?___flsub,w
  4290  01E0  1683               	bsf	3,5	;RP0=1, select bank1
  4291  01E1  1303               	bcf	3,6	;RP1=0, select bank1
  4292  01E2  00D3               	movwf	ADC_convert@a^(0+128)
  4293  01E3                     l3418:
  4294                           
  4295                           ;lab4.c: 241:          data[i]=0x30+((int)x);
  4296  01E3  0861               	movf	(ADC_convert@x+3)^(0+128),w
  4297  01E4  00F5               	movwf	___fltol@f1+3
  4298  01E5  0860               	movf	(ADC_convert@x+2)^(0+128),w
  4299  01E6  00F4               	movwf	___fltol@f1+2
  4300  01E7  085F               	movf	(ADC_convert@x+1)^(0+128),w
  4301  01E8  00F3               	movwf	___fltol@f1+1
  4302  01E9  085E               	movf	ADC_convert@x^(0+128),w
  4303  01EA  00F2               	movwf	___fltol@f1
  4304  01EB  120A  158A  2007  120A  118A  	fcall	___fltol
  4305  01F0  0872               	movf	?___fltol,w
  4306  01F1  3E30               	addlw	48
  4307  01F2  1283               	bcf	3,5	;RP0=0, select bank0
  4308  01F3  1303               	bcf	3,6	;RP1=0, select bank0
  4309  01F4  00EB               	movwf	??_ADC_convert
  4310  01F5  1683               	bsf	3,5	;RP0=1, select bank1
  4311  01F6  1303               	bcf	3,6	;RP1=0, select bank1
  4312  01F7  0862               	movf	ADC_convert@i^(0+128),w
  4313  01F8  075D               	addwf	ADC_convert@data^(0+128),w
  4314  01F9  1283               	bcf	3,5	;RP0=0, select bank0
  4315  01FA  1303               	bcf	3,6	;RP1=0, select bank0
  4316  01FB  00EC               	movwf	??_ADC_convert+1
  4317  01FC  086C               	movf	??_ADC_convert+1,w
  4318  01FD  0084               	movwf	4
  4319  01FE  086B               	movf	??_ADC_convert,w
  4320  01FF  1383               	bcf	3,7	;select IRP bank0
  4321  0200  0080               	movwf	0
  4322  0201                     l3420:
  4323                           
  4324                           ;lab4.c: 242:          i++;
  4325  0201  3001               	movlw	1
  4326  0202  1683               	bsf	3,5	;RP0=1, select bank1
  4327  0203  1303               	bcf	3,6	;RP1=0, select bank1
  4328  0204  07E2               	addwf	ADC_convert@i^(0+128),f
  4329  0205  1803               	skipnc
  4330  0206  0AE3               	incf	(ADC_convert@i+1)^(0+128),f
  4331  0207  3000               	movlw	0
  4332  0208  07E3               	addwf	(ADC_convert@i+1)^(0+128),f
  4333  0209                     l3422:
  4334                           
  4335                           ;lab4.c: 243:          digits--;
  4336  0209  30FF               	movlw	255
  4337  020A  07E4               	addwf	ADC_convert@digits^(0+128),f
  4338  020B  1803               	skipnc
  4339  020C  0AE5               	incf	(ADC_convert@digits+1)^(0+128),f
  4340  020D  30FF               	movlw	255
  4341  020E  07E5               	addwf	(ADC_convert@digits+1)^(0+128),f
  4342  020F                     l3424:
  4343                           
  4344                           ;lab4.c: 244:          mu=1;
  4345  020F  3001               	movlw	1
  4346  0210  00E6               	movwf	ADC_convert@mu^(0+128)
  4347  0211  3000               	movlw	0
  4348  0212  00E7               	movwf	(ADC_convert@mu^(0+128)+1)
  4349  0213                     l3426:
  4350                           
  4351                           ;lab4.c: 234:      while(digits!=0)
  4352  0213  0864               	movf	ADC_convert@digits^(0+128),w
  4353  0214  0465               	iorwf	(ADC_convert@digits+1)^(0+128),w
  4354  0215  1D03               	btfss	3,2
  4355  0216  2A18               	goto	u4821
  4356  0217  2A19               	goto	u4820
  4357  0218                     u4821:
  4358  0218  28CC               	goto	l3404
  4359  0219                     u4820:
  4360  0219                     l3428:
  4361                           
  4362                           ;lab4.c: 247:      data[i]='.';
  4363  0219  302E               	movlw	46
  4364  021A  1283               	bcf	3,5	;RP0=0, select bank0
  4365  021B  1303               	bcf	3,6	;RP1=0, select bank0
  4366  021C  00EB               	movwf	??_ADC_convert
  4367  021D  1683               	bsf	3,5	;RP0=1, select bank1
  4368  021E  1303               	bcf	3,6	;RP1=0, select bank1
  4369  021F  0862               	movf	ADC_convert@i^(0+128),w
  4370  0220  075D               	addwf	ADC_convert@data^(0+128),w
  4371  0221  1283               	bcf	3,5	;RP0=0, select bank0
  4372  0222  1303               	bcf	3,6	;RP1=0, select bank0
  4373  0223  00EC               	movwf	??_ADC_convert+1
  4374  0224  086C               	movf	??_ADC_convert+1,w
  4375  0225  0084               	movwf	4
  4376  0226  086B               	movf	??_ADC_convert,w
  4377  0227  1383               	bcf	3,7	;select IRP bank0
  4378  0228  0080               	movwf	0
  4379  0229                     l3430:
  4380                           
  4381                           ;lab4.c: 248:      i++;
  4382  0229  3001               	movlw	1
  4383  022A  1683               	bsf	3,5	;RP0=1, select bank1
  4384  022B  1303               	bcf	3,6	;RP1=0, select bank1
  4385  022C  07E2               	addwf	ADC_convert@i^(0+128),f
  4386  022D  1803               	skipnc
  4387  022E  0AE3               	incf	(ADC_convert@i+1)^(0+128),f
  4388  022F  3000               	movlw	0
  4389  0230  07E3               	addwf	(ADC_convert@i+1)^(0+128),f
  4390  0231                     l3432:
  4391  0231                     l3434:
  4392                           
  4393                           ;lab4.c: 250:      for(j=1;j<=place;j++)mu=mu*10;
  4394  0231  3001               	movlw	1
  4395  0232  00DB               	movwf	ADC_convert@j^(0+128)
  4396  0233  3000               	movlw	0
  4397  0234  00DC               	movwf	(ADC_convert@j^(0+128)+1)
  4398  0235  2A5D               	goto	l3440
  4399  0236                     l3436:
  4400  0236  1683               	bsf	3,5	;RP0=1, select bank1
  4401  0237  1303               	bcf	3,6	;RP1=0, select bank1
  4402  0238  0867               	movf	(ADC_convert@mu+1)^(0+128),w
  4403  0239  1283               	bcf	3,5	;RP0=0, select bank0
  4404  023A  1303               	bcf	3,6	;RP1=0, select bank0
  4405  023B  00A6               	movwf	___wmul@multiplier+1
  4406  023C  1683               	bsf	3,5	;RP0=1, select bank1
  4407  023D  1303               	bcf	3,6	;RP1=0, select bank1
  4408  023E  0866               	movf	ADC_convert@mu^(0+128),w
  4409  023F  1283               	bcf	3,5	;RP0=0, select bank0
  4410  0240  1303               	bcf	3,6	;RP1=0, select bank0
  4411  0241  00A5               	movwf	___wmul@multiplier
  4412  0242  300A               	movlw	10
  4413  0243  00A7               	movwf	___wmul@multiplicand
  4414  0244  3000               	movlw	0
  4415  0245  00A8               	movwf	___wmul@multiplicand+1
  4416  0246  160A  118A  22FA  120A  118A  	fcall	___wmul
  4417  024B  1283               	bcf	3,5	;RP0=0, select bank0
  4418  024C  1303               	bcf	3,6	;RP1=0, select bank0
  4419  024D  0826               	movf	?___wmul+1,w
  4420  024E  1683               	bsf	3,5	;RP0=1, select bank1
  4421  024F  1303               	bcf	3,6	;RP1=0, select bank1
  4422  0250  00E7               	movwf	(ADC_convert@mu+1)^(0+128)
  4423  0251  1283               	bcf	3,5	;RP0=0, select bank0
  4424  0252  1303               	bcf	3,6	;RP1=0, select bank0
  4425  0253  0825               	movf	?___wmul,w
  4426  0254  1683               	bsf	3,5	;RP0=1, select bank1
  4427  0255  1303               	bcf	3,6	;RP1=0, select bank1
  4428  0256  00E6               	movwf	ADC_convert@mu^(0+128)
  4429  0257                     l3438:
  4430  0257  3001               	movlw	1
  4431  0258  07DB               	addwf	ADC_convert@j^(0+128),f
  4432  0259  1803               	skipnc
  4433  025A  0ADC               	incf	(ADC_convert@j+1)^(0+128),f
  4434  025B  3000               	movlw	0
  4435  025C  07DC               	addwf	(ADC_convert@j+1)^(0+128),f
  4436  025D                     l3440:
  4437  025D  0858               	movf	(ADC_convert@place+1)^(0+128),w
  4438  025E  3A80               	xorlw	128
  4439  025F  1283               	bcf	3,5	;RP0=0, select bank0
  4440  0260  1303               	bcf	3,6	;RP1=0, select bank0
  4441  0261  00EB               	movwf	??_ADC_convert
  4442  0262  1683               	bsf	3,5	;RP0=1, select bank1
  4443  0263  1303               	bcf	3,6	;RP1=0, select bank1
  4444  0264  085C               	movf	(ADC_convert@j+1)^(0+128),w
  4445  0265  3A80               	xorlw	128
  4446  0266  1283               	bcf	3,5	;RP0=0, select bank0
  4447  0267  1303               	bcf	3,6	;RP1=0, select bank0
  4448  0268  026B               	subwf	??_ADC_convert,w
  4449  0269  1D03               	skipz
  4450  026A  2A6F               	goto	u4835
  4451  026B  1683               	bsf	3,5	;RP0=1, select bank1
  4452  026C  1303               	bcf	3,6	;RP1=0, select bank1
  4453  026D  085B               	movf	ADC_convert@j^(0+128),w
  4454  026E  0257               	subwf	ADC_convert@place^(0+128),w
  4455  026F                     u4835:
  4456  026F  1803               	skipnc
  4457  0270  2A72               	goto	u4831
  4458  0271  2A73               	goto	u4830
  4459  0272                     u4831:
  4460  0272  2A36               	goto	l3436
  4461  0273                     u4830:
  4462  0273                     l3442:
  4463                           
  4464                           ;lab4.c: 251:      x=(a-(int)a)*mu;
  4465  0273  1683               	bsf	3,5	;RP0=1, select bank1
  4466  0274  1303               	bcf	3,6	;RP1=0, select bank1
  4467  0275  0866               	movf	ADC_convert@mu^(0+128),w
  4468  0276  1283               	bcf	3,5	;RP0=0, select bank0
  4469  0277  1303               	bcf	3,6	;RP1=0, select bank0
  4470  0278  00A9               	movwf	___xxtofl@val
  4471  0279  1683               	bsf	3,5	;RP0=1, select bank1
  4472  027A  1303               	bcf	3,6	;RP1=0, select bank1
  4473  027B  0867               	movf	(ADC_convert@mu+1)^(0+128),w
  4474  027C  1283               	bcf	3,5	;RP0=0, select bank0
  4475  027D  1303               	bcf	3,6	;RP1=0, select bank0
  4476  027E  00AA               	movwf	___xxtofl@val+1
  4477  027F  3000               	movlw	0
  4478  0280  1BAA               	btfsc	___xxtofl@val+1,7
  4479  0281  30FF               	movlw	255
  4480  0282  00AB               	movwf	___xxtofl@val+2
  4481  0283  00AC               	movwf	___xxtofl@val+3
  4482  0284  3001               	movlw	1
  4483  0285  160A  118A  2744  120A  118A  	fcall	___xxtofl
  4484  028A  1283               	bcf	3,5	;RP0=0, select bank0
  4485  028B  1303               	bcf	3,6	;RP1=0, select bank0
  4486  028C  082C               	movf	?___xxtofl+3,w
  4487  028D  00D4               	movwf	___flmul@b+3
  4488  028E  082B               	movf	?___xxtofl+2,w
  4489  028F  00D3               	movwf	___flmul@b+2
  4490  0290  082A               	movf	?___xxtofl+1,w
  4491  0291  00D2               	movwf	___flmul@b+1
  4492  0292  0829               	movf	?___xxtofl,w
  4493  0293  00D1               	movwf	___flmul@b
  4494  0294  1683               	bsf	3,5	;RP0=1, select bank1
  4495  0295  1303               	bcf	3,6	;RP1=0, select bank1
  4496  0296  0856               	movf	(ADC_convert@a+3)^(0+128),w
  4497  0297  00F5               	movwf	___fltol@f1+3
  4498  0298  0855               	movf	(ADC_convert@a+2)^(0+128),w
  4499  0299  00F4               	movwf	___fltol@f1+2
  4500  029A  0854               	movf	(ADC_convert@a+1)^(0+128),w
  4501  029B  00F3               	movwf	___fltol@f1+1
  4502  029C  0853               	movf	ADC_convert@a^(0+128),w
  4503  029D  00F2               	movwf	___fltol@f1
  4504  029E  120A  158A  2007  120A  118A  	fcall	___fltol
  4505  02A3  0872               	movf	?___fltol,w
  4506  02A4  1283               	bcf	3,5	;RP0=0, select bank0
  4507  02A5  1303               	bcf	3,6	;RP1=0, select bank0
  4508  02A6  00A9               	movwf	___xxtofl@val
  4509  02A7  0873               	movf	?___fltol+1,w
  4510  02A8  00AA               	movwf	___xxtofl@val+1
  4511  02A9  3000               	movlw	0
  4512  02AA  1BAA               	btfsc	___xxtofl@val+1,7
  4513  02AB  30FF               	movlw	255
  4514  02AC  00AB               	movwf	___xxtofl@val+2
  4515  02AD  00AC               	movwf	___xxtofl@val+3
  4516  02AE  3001               	movlw	1
  4517  02AF  160A  118A  2744  120A  118A  	fcall	___xxtofl
  4518  02B4  1283               	bcf	3,5	;RP0=0, select bank0
  4519  02B5  1303               	bcf	3,6	;RP1=0, select bank0
  4520  02B6  082C               	movf	?___xxtofl+3,w
  4521  02B7  00BA               	movwf	___flsub@a+3
  4522  02B8  082B               	movf	?___xxtofl+2,w
  4523  02B9  00B9               	movwf	___flsub@a+2
  4524  02BA  082A               	movf	?___xxtofl+1,w
  4525  02BB  00B8               	movwf	___flsub@a+1
  4526  02BC  0829               	movf	?___xxtofl,w
  4527  02BD  00B7               	movwf	___flsub@a
  4528  02BE  1683               	bsf	3,5	;RP0=1, select bank1
  4529  02BF  1303               	bcf	3,6	;RP1=0, select bank1
  4530  02C0  0856               	movf	(ADC_convert@a+3)^(0+128),w
  4531  02C1  1283               	bcf	3,5	;RP0=0, select bank0
  4532  02C2  1303               	bcf	3,6	;RP1=0, select bank0
  4533  02C3  00BE               	movwf	___flsub@b+3
  4534  02C4  1683               	bsf	3,5	;RP0=1, select bank1
  4535  02C5  1303               	bcf	3,6	;RP1=0, select bank1
  4536  02C6  0855               	movf	(ADC_convert@a+2)^(0+128),w
  4537  02C7  1283               	bcf	3,5	;RP0=0, select bank0
  4538  02C8  1303               	bcf	3,6	;RP1=0, select bank0
  4539  02C9  00BD               	movwf	___flsub@b+2
  4540  02CA  1683               	bsf	3,5	;RP0=1, select bank1
  4541  02CB  1303               	bcf	3,6	;RP1=0, select bank1
  4542  02CC  0854               	movf	(ADC_convert@a+1)^(0+128),w
  4543  02CD  1283               	bcf	3,5	;RP0=0, select bank0
  4544  02CE  1303               	bcf	3,6	;RP1=0, select bank0
  4545  02CF  00BC               	movwf	___flsub@b+1
  4546  02D0  1683               	bsf	3,5	;RP0=1, select bank1
  4547  02D1  1303               	bcf	3,6	;RP1=0, select bank1
  4548  02D2  0853               	movf	ADC_convert@a^(0+128),w
  4549  02D3  1283               	bcf	3,5	;RP0=0, select bank0
  4550  02D4  1303               	bcf	3,6	;RP1=0, select bank0
  4551  02D5  00BB               	movwf	___flsub@b
  4552  02D6  160A  118A  22D6  120A  118A  	fcall	___flsub
  4553  02DB  1283               	bcf	3,5	;RP0=0, select bank0
  4554  02DC  1303               	bcf	3,6	;RP1=0, select bank0
  4555  02DD  083A               	movf	?___flsub+3,w
  4556  02DE  00D8               	movwf	___flmul@a+3
  4557  02DF  0839               	movf	?___flsub+2,w
  4558  02E0  00D7               	movwf	___flmul@a+2
  4559  02E1  0838               	movf	?___flsub+1,w
  4560  02E2  00D6               	movwf	___flmul@a+1
  4561  02E3  0837               	movf	?___flsub,w
  4562  02E4  00D5               	movwf	___flmul@a
  4563  02E5  120A  118A  2480  120A  118A  	fcall	___flmul
  4564  02EA  1283               	bcf	3,5	;RP0=0, select bank0
  4565  02EB  1303               	bcf	3,6	;RP1=0, select bank0
  4566  02EC  0854               	movf	?___flmul+3,w
  4567  02ED  1683               	bsf	3,5	;RP0=1, select bank1
  4568  02EE  1303               	bcf	3,6	;RP1=0, select bank1
  4569  02EF  00E1               	movwf	(ADC_convert@x+3)^(0+128)
  4570  02F0  1283               	bcf	3,5	;RP0=0, select bank0
  4571  02F1  1303               	bcf	3,6	;RP1=0, select bank0
  4572  02F2  0853               	movf	?___flmul+2,w
  4573  02F3  1683               	bsf	3,5	;RP0=1, select bank1
  4574  02F4  1303               	bcf	3,6	;RP1=0, select bank1
  4575  02F5  00E0               	movwf	(ADC_convert@x+2)^(0+128)
  4576  02F6  1283               	bcf	3,5	;RP0=0, select bank0
  4577  02F7  1303               	bcf	3,6	;RP1=0, select bank0
  4578  02F8  0852               	movf	?___flmul+1,w
  4579  02F9  1683               	bsf	3,5	;RP0=1, select bank1
  4580  02FA  1303               	bcf	3,6	;RP1=0, select bank1
  4581  02FB  00DF               	movwf	(ADC_convert@x+1)^(0+128)
  4582  02FC  1283               	bcf	3,5	;RP0=0, select bank0
  4583  02FD  1303               	bcf	3,6	;RP1=0, select bank0
  4584  02FE  0851               	movf	?___flmul,w
  4585  02FF  1683               	bsf	3,5	;RP0=1, select bank1
  4586  0300  1303               	bcf	3,6	;RP1=0, select bank1
  4587  0301  00DE               	movwf	ADC_convert@x^(0+128)
  4588  0302                     l3444:
  4589                           
  4590                           ;lab4.c: 252:      a=x;
  4591  0302  0861               	movf	(ADC_convert@x+3)^(0+128),w
  4592  0303  00D6               	movwf	(ADC_convert@a+3)^(0+128)
  4593  0304  0860               	movf	(ADC_convert@x+2)^(0+128),w
  4594  0305  00D5               	movwf	(ADC_convert@a+2)^(0+128)
  4595  0306  085F               	movf	(ADC_convert@x+1)^(0+128),w
  4596  0307  00D4               	movwf	(ADC_convert@a+1)^(0+128)
  4597  0308  085E               	movf	ADC_convert@x^(0+128),w
  4598  0309  00D3               	movwf	ADC_convert@a^(0+128)
  4599  030A                     l3446:
  4600  030A  0856               	movf	(ADC_convert@a+3)^(0+128),w
  4601  030B  00F5               	movwf	___fltol@f1+3
  4602  030C  0855               	movf	(ADC_convert@a+2)^(0+128),w
  4603  030D  00F4               	movwf	___fltol@f1+2
  4604  030E  0854               	movf	(ADC_convert@a+1)^(0+128),w
  4605  030F  00F3               	movwf	___fltol@f1+1
  4606  0310  0853               	movf	ADC_convert@a^(0+128),w
  4607  0311  00F2               	movwf	___fltol@f1
  4608  0312  120A  158A  2007  120A  118A  	fcall	___fltol
  4609  0317                     l3448:
  4610  0317                     l3450:
  4611                           
  4612                           ;lab4.c: 255:      mu=1;
  4613  0317  3001               	movlw	1
  4614  0318  1683               	bsf	3,5	;RP0=1, select bank1
  4615  0319  1303               	bcf	3,6	;RP1=0, select bank1
  4616  031A  00E6               	movwf	ADC_convert@mu^(0+128)
  4617  031B  3000               	movlw	0
  4618  031C  00E7               	movwf	(ADC_convert@mu^(0+128)+1)
  4619  031D                     l3452:
  4620                           
  4621                           ;lab4.c: 256:      digits=place;
  4622  031D  0858               	movf	(ADC_convert@place+1)^(0+128),w
  4623  031E  00E5               	movwf	(ADC_convert@digits+1)^(0+128)
  4624  031F  0857               	movf	ADC_convert@place^(0+128),w
  4625  0320  00E4               	movwf	ADC_convert@digits^(0+128)
  4626                           
  4627                           ;lab4.c: 257:      while(digits!=0)
  4628  0321  2C69               	goto	l3476
  4629  0322                     l3454:
  4630                           
  4631                           ;lab4.c: 258:      {;lab4.c: 259:          if(digits==1)mu=1;
  4632  0322  0364               	decf	ADC_convert@digits^(0+128),w
  4633  0323  0465               	iorwf	(ADC_convert@digits+1)^(0+128),w
  4634  0324  1D03               	btfss	3,2
  4635  0325  2B27               	goto	u4841
  4636  0326  2B28               	goto	u4840
  4637  0327                     u4841:
  4638  0327  2B2D               	goto	l3458
  4639  0328                     u4840:
  4640  0328                     l3456:
  4641  0328  3001               	movlw	1
  4642  0329  00E6               	movwf	ADC_convert@mu^(0+128)
  4643  032A  3000               	movlw	0
  4644  032B  00E7               	movwf	(ADC_convert@mu^(0+128)+1)
  4645  032C  2B6F               	goto	l3466
  4646  032D                     l3458:
  4647  032D  3002               	movlw	2
  4648  032E  00DB               	movwf	ADC_convert@j^(0+128)
  4649  032F  3000               	movlw	0
  4650  0330  00DC               	movwf	(ADC_convert@j^(0+128)+1)
  4651  0331  2B59               	goto	l3464
  4652  0332                     l3460:
  4653  0332  1683               	bsf	3,5	;RP0=1, select bank1
  4654  0333  1303               	bcf	3,6	;RP1=0, select bank1
  4655  0334  0867               	movf	(ADC_convert@mu+1)^(0+128),w
  4656  0335  1283               	bcf	3,5	;RP0=0, select bank0
  4657  0336  1303               	bcf	3,6	;RP1=0, select bank0
  4658  0337  00A6               	movwf	___wmul@multiplier+1
  4659  0338  1683               	bsf	3,5	;RP0=1, select bank1
  4660  0339  1303               	bcf	3,6	;RP1=0, select bank1
  4661  033A  0866               	movf	ADC_convert@mu^(0+128),w
  4662  033B  1283               	bcf	3,5	;RP0=0, select bank0
  4663  033C  1303               	bcf	3,6	;RP1=0, select bank0
  4664  033D  00A5               	movwf	___wmul@multiplier
  4665  033E  300A               	movlw	10
  4666  033F  00A7               	movwf	___wmul@multiplicand
  4667  0340  3000               	movlw	0
  4668  0341  00A8               	movwf	___wmul@multiplicand+1
  4669  0342  160A  118A  22FA  120A  118A  	fcall	___wmul
  4670  0347  1283               	bcf	3,5	;RP0=0, select bank0
  4671  0348  1303               	bcf	3,6	;RP1=0, select bank0
  4672  0349  0826               	movf	?___wmul+1,w
  4673  034A  1683               	bsf	3,5	;RP0=1, select bank1
  4674  034B  1303               	bcf	3,6	;RP1=0, select bank1
  4675  034C  00E7               	movwf	(ADC_convert@mu+1)^(0+128)
  4676  034D  1283               	bcf	3,5	;RP0=0, select bank0
  4677  034E  1303               	bcf	3,6	;RP1=0, select bank0
  4678  034F  0825               	movf	?___wmul,w
  4679  0350  1683               	bsf	3,5	;RP0=1, select bank1
  4680  0351  1303               	bcf	3,6	;RP1=0, select bank1
  4681  0352  00E6               	movwf	ADC_convert@mu^(0+128)
  4682  0353                     l3462:
  4683  0353  3001               	movlw	1
  4684  0354  07DB               	addwf	ADC_convert@j^(0+128),f
  4685  0355  1803               	skipnc
  4686  0356  0ADC               	incf	(ADC_convert@j+1)^(0+128),f
  4687  0357  3000               	movlw	0
  4688  0358  07DC               	addwf	(ADC_convert@j+1)^(0+128),f
  4689  0359                     l3464:
  4690  0359  0865               	movf	(ADC_convert@digits+1)^(0+128),w
  4691  035A  3A80               	xorlw	128
  4692  035B  1283               	bcf	3,5	;RP0=0, select bank0
  4693  035C  1303               	bcf	3,6	;RP1=0, select bank0
  4694  035D  00EB               	movwf	??_ADC_convert
  4695  035E  1683               	bsf	3,5	;RP0=1, select bank1
  4696  035F  1303               	bcf	3,6	;RP1=0, select bank1
  4697  0360  085C               	movf	(ADC_convert@j+1)^(0+128),w
  4698  0361  3A80               	xorlw	128
  4699  0362  1283               	bcf	3,5	;RP0=0, select bank0
  4700  0363  1303               	bcf	3,6	;RP1=0, select bank0
  4701  0364  026B               	subwf	??_ADC_convert,w
  4702  0365  1D03               	skipz
  4703  0366  2B6B               	goto	u4855
  4704  0367  1683               	bsf	3,5	;RP0=1, select bank1
  4705  0368  1303               	bcf	3,6	;RP1=0, select bank1
  4706  0369  085B               	movf	ADC_convert@j^(0+128),w
  4707  036A  0264               	subwf	ADC_convert@digits^(0+128),w
  4708  036B                     u4855:
  4709  036B  1803               	skipnc
  4710  036C  2B6E               	goto	u4851
  4711  036D  2B6F               	goto	u4850
  4712  036E                     u4851:
  4713  036E  2B32               	goto	l3460
  4714  036F                     u4850:
  4715  036F                     l3466:
  4716                           
  4717                           ;lab4.c: 262:          x=a/mu;
  4718  036F  1683               	bsf	3,5	;RP0=1, select bank1
  4719  0370  1303               	bcf	3,6	;RP1=0, select bank1
  4720  0371  0866               	movf	ADC_convert@mu^(0+128),w
  4721  0372  1283               	bcf	3,5	;RP0=0, select bank0
  4722  0373  1303               	bcf	3,6	;RP1=0, select bank0
  4723  0374  00A9               	movwf	___xxtofl@val
  4724  0375  1683               	bsf	3,5	;RP0=1, select bank1
  4725  0376  1303               	bcf	3,6	;RP1=0, select bank1
  4726  0377  0867               	movf	(ADC_convert@mu+1)^(0+128),w
  4727  0378  1283               	bcf	3,5	;RP0=0, select bank0
  4728  0379  1303               	bcf	3,6	;RP1=0, select bank0
  4729  037A  00AA               	movwf	___xxtofl@val+1
  4730  037B  3000               	movlw	0
  4731  037C  1BAA               	btfsc	___xxtofl@val+1,7
  4732  037D  30FF               	movlw	255
  4733  037E  00AB               	movwf	___xxtofl@val+2
  4734  037F  00AC               	movwf	___xxtofl@val+3
  4735  0380  3001               	movlw	1
  4736  0381  160A  118A  2744  120A  118A  	fcall	___xxtofl
  4737  0386  1283               	bcf	3,5	;RP0=0, select bank0
  4738  0387  1303               	bcf	3,6	;RP1=0, select bank0
  4739  0388  082C               	movf	?___xxtofl+3,w
  4740  0389  00BA               	movwf	___fldiv@a+3
  4741  038A  082B               	movf	?___xxtofl+2,w
  4742  038B  00B9               	movwf	___fldiv@a+2
  4743  038C  082A               	movf	?___xxtofl+1,w
  4744  038D  00B8               	movwf	___fldiv@a+1
  4745  038E  0829               	movf	?___xxtofl,w
  4746  038F  00B7               	movwf	___fldiv@a
  4747  0390  1683               	bsf	3,5	;RP0=1, select bank1
  4748  0391  1303               	bcf	3,6	;RP1=0, select bank1
  4749  0392  0856               	movf	(ADC_convert@a+3)^(0+128),w
  4750  0393  1283               	bcf	3,5	;RP0=0, select bank0
  4751  0394  1303               	bcf	3,6	;RP1=0, select bank0
  4752  0395  00BE               	movwf	___fldiv@b+3
  4753  0396  1683               	bsf	3,5	;RP0=1, select bank1
  4754  0397  1303               	bcf	3,6	;RP1=0, select bank1
  4755  0398  0855               	movf	(ADC_convert@a+2)^(0+128),w
  4756  0399  1283               	bcf	3,5	;RP0=0, select bank0
  4757  039A  1303               	bcf	3,6	;RP1=0, select bank0
  4758  039B  00BD               	movwf	___fldiv@b+2
  4759  039C  1683               	bsf	3,5	;RP0=1, select bank1
  4760  039D  1303               	bcf	3,6	;RP1=0, select bank1
  4761  039E  0854               	movf	(ADC_convert@a+1)^(0+128),w
  4762  039F  1283               	bcf	3,5	;RP0=0, select bank0
  4763  03A0  1303               	bcf	3,6	;RP1=0, select bank0
  4764  03A1  00BC               	movwf	___fldiv@b+1
  4765  03A2  1683               	bsf	3,5	;RP0=1, select bank1
  4766  03A3  1303               	bcf	3,6	;RP1=0, select bank1
  4767  03A4  0853               	movf	ADC_convert@a^(0+128),w
  4768  03A5  1283               	bcf	3,5	;RP0=0, select bank0
  4769  03A6  1303               	bcf	3,6	;RP1=0, select bank0
  4770  03A7  00BB               	movwf	___fldiv@b
  4771  03A8  120A  158A  2083  120A  118A  	fcall	___fldiv
  4772  03AD  1283               	bcf	3,5	;RP0=0, select bank0
  4773  03AE  1303               	bcf	3,6	;RP1=0, select bank0
  4774  03AF  083A               	movf	?___fldiv+3,w
  4775  03B0  1683               	bsf	3,5	;RP0=1, select bank1
  4776  03B1  1303               	bcf	3,6	;RP1=0, select bank1
  4777  03B2  00E1               	movwf	(ADC_convert@x+3)^(0+128)
  4778  03B3  1283               	bcf	3,5	;RP0=0, select bank0
  4779  03B4  1303               	bcf	3,6	;RP1=0, select bank0
  4780  03B5  0839               	movf	?___fldiv+2,w
  4781  03B6  1683               	bsf	3,5	;RP0=1, select bank1
  4782  03B7  1303               	bcf	3,6	;RP1=0, select bank1
  4783  03B8  00E0               	movwf	(ADC_convert@x+2)^(0+128)
  4784  03B9  1283               	bcf	3,5	;RP0=0, select bank0
  4785  03BA  1303               	bcf	3,6	;RP1=0, select bank0
  4786  03BB  0838               	movf	?___fldiv+1,w
  4787  03BC  1683               	bsf	3,5	;RP0=1, select bank1
  4788  03BD  1303               	bcf	3,6	;RP1=0, select bank1
  4789  03BE  00DF               	movwf	(ADC_convert@x+1)^(0+128)
  4790  03BF  1283               	bcf	3,5	;RP0=0, select bank0
  4791  03C0  1303               	bcf	3,6	;RP1=0, select bank0
  4792  03C1  0837               	movf	?___fldiv,w
  4793  03C2  1683               	bsf	3,5	;RP0=1, select bank1
  4794  03C3  1303               	bcf	3,6	;RP1=0, select bank1
  4795  03C4  00DE               	movwf	ADC_convert@x^(0+128)
  4796                           
  4797                           ;lab4.c: 263:          a=a-((int)x*mu);
  4798  03C5  0867               	movf	(ADC_convert@mu+1)^(0+128),w
  4799  03C6  1283               	bcf	3,5	;RP0=0, select bank0
  4800  03C7  1303               	bcf	3,6	;RP1=0, select bank0
  4801  03C8  00A8               	movwf	___wmul@multiplicand+1
  4802  03C9  1683               	bsf	3,5	;RP0=1, select bank1
  4803  03CA  1303               	bcf	3,6	;RP1=0, select bank1
  4804  03CB  0866               	movf	ADC_convert@mu^(0+128),w
  4805  03CC  1283               	bcf	3,5	;RP0=0, select bank0
  4806  03CD  1303               	bcf	3,6	;RP1=0, select bank0
  4807  03CE  00A7               	movwf	___wmul@multiplicand
  4808  03CF  1683               	bsf	3,5	;RP0=1, select bank1
  4809  03D0  1303               	bcf	3,6	;RP1=0, select bank1
  4810  03D1  0861               	movf	(ADC_convert@x+3)^(0+128),w
  4811  03D2  00F5               	movwf	___fltol@f1+3
  4812  03D3  0860               	movf	(ADC_convert@x+2)^(0+128),w
  4813  03D4  00F4               	movwf	___fltol@f1+2
  4814  03D5  085F               	movf	(ADC_convert@x+1)^(0+128),w
  4815  03D6  00F3               	movwf	___fltol@f1+1
  4816  03D7  085E               	movf	ADC_convert@x^(0+128),w
  4817  03D8  00F2               	movwf	___fltol@f1
  4818  03D9  120A  158A  2007  120A  118A  	fcall	___fltol
  4819  03DE  0873               	movf	?___fltol+1,w
  4820  03DF  1283               	bcf	3,5	;RP0=0, select bank0
  4821  03E0  1303               	bcf	3,6	;RP1=0, select bank0
  4822  03E1  00A6               	movwf	___wmul@multiplier+1
  4823  03E2  0872               	movf	?___fltol,w
  4824  03E3  00A5               	movwf	___wmul@multiplier
  4825  03E4  160A  118A  22FA  120A  118A  	fcall	___wmul
  4826  03E9  1283               	bcf	3,5	;RP0=0, select bank0
  4827  03EA  1303               	bcf	3,6	;RP1=0, select bank0
  4828  03EB  0825               	movf	?___wmul,w
  4829  03EC  00A9               	movwf	___xxtofl@val
  4830  03ED  0826               	movf	?___wmul+1,w
  4831  03EE  00AA               	movwf	___xxtofl@val+1
  4832  03EF  3000               	movlw	0
  4833  03F0  1BAA               	btfsc	___xxtofl@val+1,7
  4834  03F1  30FF               	movlw	255
  4835  03F2  00AB               	movwf	___xxtofl@val+2
  4836  03F3  00AC               	movwf	___xxtofl@val+3
  4837  03F4  3001               	movlw	1
  4838  03F5  160A  118A  2744  120A  118A  	fcall	___xxtofl
  4839  03FA  1283               	bcf	3,5	;RP0=0, select bank0
  4840  03FB  1303               	bcf	3,6	;RP1=0, select bank0
  4841  03FC  082C               	movf	?___xxtofl+3,w
  4842  03FD  00BA               	movwf	___flsub@a+3
  4843  03FE  082B               	movf	?___xxtofl+2,w
  4844  03FF  00B9               	movwf	___flsub@a+2
  4845  0400  082A               	movf	?___xxtofl+1,w
  4846  0401  00B8               	movwf	___flsub@a+1
  4847  0402  0829               	movf	?___xxtofl,w
  4848  0403  00B7               	movwf	___flsub@a
  4849  0404  1683               	bsf	3,5	;RP0=1, select bank1
  4850  0405  1303               	bcf	3,6	;RP1=0, select bank1
  4851  0406  0856               	movf	(ADC_convert@a+3)^(0+128),w
  4852  0407  1283               	bcf	3,5	;RP0=0, select bank0
  4853  0408  1303               	bcf	3,6	;RP1=0, select bank0
  4854  0409  00BE               	movwf	___flsub@b+3
  4855  040A  1683               	bsf	3,5	;RP0=1, select bank1
  4856  040B  1303               	bcf	3,6	;RP1=0, select bank1
  4857  040C  0855               	movf	(ADC_convert@a+2)^(0+128),w
  4858  040D  1283               	bcf	3,5	;RP0=0, select bank0
  4859  040E  1303               	bcf	3,6	;RP1=0, select bank0
  4860  040F  00BD               	movwf	___flsub@b+2
  4861  0410  1683               	bsf	3,5	;RP0=1, select bank1
  4862  0411  1303               	bcf	3,6	;RP1=0, select bank1
  4863  0412  0854               	movf	(ADC_convert@a+1)^(0+128),w
  4864  0413  1283               	bcf	3,5	;RP0=0, select bank0
  4865  0414  1303               	bcf	3,6	;RP1=0, select bank0
  4866  0415  00BC               	movwf	___flsub@b+1
  4867  0416  1683               	bsf	3,5	;RP0=1, select bank1
  4868  0417  1303               	bcf	3,6	;RP1=0, select bank1
  4869  0418  0853               	movf	ADC_convert@a^(0+128),w
  4870  0419  1283               	bcf	3,5	;RP0=0, select bank0
  4871  041A  1303               	bcf	3,6	;RP1=0, select bank0
  4872  041B  00BB               	movwf	___flsub@b
  4873  041C  160A  118A  22D6  120A  118A  	fcall	___flsub
  4874  0421  1283               	bcf	3,5	;RP0=0, select bank0
  4875  0422  1303               	bcf	3,6	;RP1=0, select bank0
  4876  0423  083A               	movf	?___flsub+3,w
  4877  0424  1683               	bsf	3,5	;RP0=1, select bank1
  4878  0425  1303               	bcf	3,6	;RP1=0, select bank1
  4879  0426  00D6               	movwf	(ADC_convert@a+3)^(0+128)
  4880  0427  1283               	bcf	3,5	;RP0=0, select bank0
  4881  0428  1303               	bcf	3,6	;RP1=0, select bank0
  4882  0429  0839               	movf	?___flsub+2,w
  4883  042A  1683               	bsf	3,5	;RP0=1, select bank1
  4884  042B  1303               	bcf	3,6	;RP1=0, select bank1
  4885  042C  00D5               	movwf	(ADC_convert@a+2)^(0+128)
  4886  042D  1283               	bcf	3,5	;RP0=0, select bank0
  4887  042E  1303               	bcf	3,6	;RP1=0, select bank0
  4888  042F  0838               	movf	?___flsub+1,w
  4889  0430  1683               	bsf	3,5	;RP0=1, select bank1
  4890  0431  1303               	bcf	3,6	;RP1=0, select bank1
  4891  0432  00D4               	movwf	(ADC_convert@a+1)^(0+128)
  4892  0433  1283               	bcf	3,5	;RP0=0, select bank0
  4893  0434  1303               	bcf	3,6	;RP1=0, select bank0
  4894  0435  0837               	movf	?___flsub,w
  4895  0436  1683               	bsf	3,5	;RP0=1, select bank1
  4896  0437  1303               	bcf	3,6	;RP1=0, select bank1
  4897  0438  00D3               	movwf	ADC_convert@a^(0+128)
  4898  0439                     l3468:
  4899                           
  4900                           ;lab4.c: 264:          data[i]=0x30+((int)x);
  4901  0439  0861               	movf	(ADC_convert@x+3)^(0+128),w
  4902  043A  00F5               	movwf	___fltol@f1+3
  4903  043B  0860               	movf	(ADC_convert@x+2)^(0+128),w
  4904  043C  00F4               	movwf	___fltol@f1+2
  4905  043D  085F               	movf	(ADC_convert@x+1)^(0+128),w
  4906  043E  00F3               	movwf	___fltol@f1+1
  4907  043F  085E               	movf	ADC_convert@x^(0+128),w
  4908  0440  00F2               	movwf	___fltol@f1
  4909  0441  120A  158A  2007  120A  118A  	fcall	___fltol
  4910  0446  0872               	movf	?___fltol,w
  4911  0447  3E30               	addlw	48
  4912  0448  1283               	bcf	3,5	;RP0=0, select bank0
  4913  0449  1303               	bcf	3,6	;RP1=0, select bank0
  4914  044A  00EB               	movwf	??_ADC_convert
  4915  044B  1683               	bsf	3,5	;RP0=1, select bank1
  4916  044C  1303               	bcf	3,6	;RP1=0, select bank1
  4917  044D  0862               	movf	ADC_convert@i^(0+128),w
  4918  044E  075D               	addwf	ADC_convert@data^(0+128),w
  4919  044F  1283               	bcf	3,5	;RP0=0, select bank0
  4920  0450  1303               	bcf	3,6	;RP1=0, select bank0
  4921  0451  00EC               	movwf	??_ADC_convert+1
  4922  0452  086C               	movf	??_ADC_convert+1,w
  4923  0453  0084               	movwf	4
  4924  0454  086B               	movf	??_ADC_convert,w
  4925  0455  1383               	bcf	3,7	;select IRP bank0
  4926  0456  0080               	movwf	0
  4927  0457                     l3470:
  4928                           
  4929                           ;lab4.c: 265:          i++;
  4930  0457  3001               	movlw	1
  4931  0458  1683               	bsf	3,5	;RP0=1, select bank1
  4932  0459  1303               	bcf	3,6	;RP1=0, select bank1
  4933  045A  07E2               	addwf	ADC_convert@i^(0+128),f
  4934  045B  1803               	skipnc
  4935  045C  0AE3               	incf	(ADC_convert@i+1)^(0+128),f
  4936  045D  3000               	movlw	0
  4937  045E  07E3               	addwf	(ADC_convert@i+1)^(0+128),f
  4938  045F                     l3472:
  4939                           
  4940                           ;lab4.c: 266:          digits--;
  4941  045F  30FF               	movlw	255
  4942  0460  07E4               	addwf	ADC_convert@digits^(0+128),f
  4943  0461  1803               	skipnc
  4944  0462  0AE5               	incf	(ADC_convert@digits+1)^(0+128),f
  4945  0463  30FF               	movlw	255
  4946  0464  07E5               	addwf	(ADC_convert@digits+1)^(0+128),f
  4947  0465                     l3474:
  4948                           
  4949                           ;lab4.c: 267:          mu=1;
  4950  0465  3001               	movlw	1
  4951  0466  00E6               	movwf	ADC_convert@mu^(0+128)
  4952  0467  3000               	movlw	0
  4953  0468  00E7               	movwf	(ADC_convert@mu^(0+128)+1)
  4954  0469                     l3476:
  4955                           
  4956                           ;lab4.c: 257:      while(digits!=0)
  4957  0469  0864               	movf	ADC_convert@digits^(0+128),w
  4958  046A  0465               	iorwf	(ADC_convert@digits+1)^(0+128),w
  4959  046B  1D03               	btfss	3,2
  4960  046C  2C6E               	goto	u4861
  4961  046D  2C6F               	goto	u4860
  4962  046E                     u4861:
  4963  046E  2B22               	goto	l3454
  4964  046F                     u4860:
  4965  046F                     l3478:
  4966                           
  4967                           ;lab4.c: 270:     data[i]='\n';
  4968  046F  300A               	movlw	10
  4969  0470  1283               	bcf	3,5	;RP0=0, select bank0
  4970  0471  1303               	bcf	3,6	;RP1=0, select bank0
  4971  0472  00EB               	movwf	??_ADC_convert
  4972  0473  1683               	bsf	3,5	;RP0=1, select bank1
  4973  0474  1303               	bcf	3,6	;RP1=0, select bank1
  4974  0475  0862               	movf	ADC_convert@i^(0+128),w
  4975  0476  075D               	addwf	ADC_convert@data^(0+128),w
  4976  0477  1283               	bcf	3,5	;RP0=0, select bank0
  4977  0478  1303               	bcf	3,6	;RP1=0, select bank0
  4978  0479  00EC               	movwf	??_ADC_convert+1
  4979  047A  086C               	movf	??_ADC_convert+1,w
  4980  047B  0084               	movwf	4
  4981  047C  086B               	movf	??_ADC_convert,w
  4982  047D  1383               	bcf	3,7	;select IRP bank0
  4983  047E  0080               	movwf	0
  4984  047F                     l251:
  4985  047F  0008               	return
  4986  0480                     __end_of_ADC_convert:
  4987                           
  4988                           	psect	text19
  4989  1744                     __ptext19:	
  4990 ;; *************** function ___xxtofl *****************
  4991 ;; Defined at:
  4992 ;;		line 10 in file "C:\Program Files\Microchip\xc8\v2.32\pic\sources\c90\common\xxtofl.c"
  4993 ;; Parameters:    Size  Location     Type
  4994 ;;  sign            1    wreg     unsigned char 
  4995 ;;  val             4    9[BANK0 ] long 
  4996 ;; Auto vars:     Size  Location     Type
  4997 ;;  sign            1   17[BANK0 ] unsigned char 
  4998 ;;  arg             4   19[BANK0 ] unsigned long 
  4999 ;;  exp             1   18[BANK0 ] unsigned char 
  5000 ;; Return value:  Size  Location     Type
  5001 ;;                  4    9[BANK0 ] unsigned char 
  5002 ;; Registers used:
  5003 ;;		wreg, status,2, status,0
  5004 ;; Tracked objects:
  5005 ;;		On entry : 0/0
  5006 ;;		On exit  : 0/0
  5007 ;;		Unchanged: 0/0
  5008 ;; Data sizes:     COMMON   BANK0   BANK1   BANK3   BANK2
  5009 ;;      Params:         0       4       0       0       0
  5010 ;;      Locals:         0       6       0       0       0
  5011 ;;      Temps:          0       4       0       0       0
  5012 ;;      Totals:         0      14       0       0       0
  5013 ;;Total ram usage:       14 bytes
  5014 ;; Hardware stack levels used: 1
  5015 ;; Hardware stack levels required when called: 1
  5016 ;; This function calls:
  5017 ;;		Nothing
  5018 ;; This function is called by:
  5019 ;;		_main
  5020 ;;		_ADC_convert
  5021 ;; This function uses a non-reentrant model
  5022 ;;
  5023                           
  5024                           
  5025                           ;psect for function ___xxtofl
  5026  1744                     ___xxtofl:
  5027                           
  5028                           ;incstack = 0
  5029                           ; Regs used in ___xxtofl: [wreg+status,2+status,0]
  5030                           ;___xxtofl@sign stored from wreg
  5031  1744  1283               	bcf	3,5	;RP0=0, select bank0
  5032  1745  1303               	bcf	3,6	;RP1=0, select bank0
  5033  1746  00B1               	movwf	___xxtofl@sign
  5034  1747                     l2734:
  5035  1747  0831               	movf	___xxtofl@sign,w
  5036  1748  1903               	btfsc	3,2
  5037  1749  2F4B               	goto	u3721
  5038  174A  2F4C               	goto	u3720
  5039  174B                     u3721:
  5040  174B  2F60               	goto	l2740
  5041  174C                     u3720:
  5042  174C                     l2736:
  5043  174C  1FAC               	btfss	___xxtofl@val+3,7
  5044  174D  2F4F               	goto	u3731
  5045  174E  2F50               	goto	u3730
  5046  174F                     u3731:
  5047  174F  2F60               	goto	l2740
  5048  1750                     u3730:
  5049  1750                     l2738:
  5050  1750  0929               	comf	___xxtofl@val,w
  5051  1751  00B3               	movwf	___xxtofl@arg
  5052  1752  092A               	comf	___xxtofl@val+1,w
  5053  1753  00B4               	movwf	___xxtofl@arg+1
  5054  1754  092B               	comf	___xxtofl@val+2,w
  5055  1755  00B5               	movwf	___xxtofl@arg+2
  5056  1756  092C               	comf	___xxtofl@val+3,w
  5057  1757  00B6               	movwf	___xxtofl@arg+3
  5058  1758  0AB3               	incf	___xxtofl@arg,f
  5059  1759  1903               	skipnz
  5060  175A  0AB4               	incf	___xxtofl@arg+1,f
  5061  175B  1903               	skipnz
  5062  175C  0AB5               	incf	___xxtofl@arg+2,f
  5063  175D  1903               	skipnz
  5064  175E  0AB6               	incf	___xxtofl@arg+3,f
  5065  175F  2F68               	goto	l773
  5066  1760                     l2740:
  5067  1760  082C               	movf	___xxtofl@val+3,w
  5068  1761  00B6               	movwf	___xxtofl@arg+3
  5069  1762  082B               	movf	___xxtofl@val+2,w
  5070  1763  00B5               	movwf	___xxtofl@arg+2
  5071  1764  082A               	movf	___xxtofl@val+1,w
  5072  1765  00B4               	movwf	___xxtofl@arg+1
  5073  1766  0829               	movf	___xxtofl@val,w
  5074  1767  00B3               	movwf	___xxtofl@arg
  5075  1768                     l773:
  5076  1768  082C               	movf	___xxtofl@val+3,w
  5077  1769  042B               	iorwf	___xxtofl@val+2,w
  5078  176A  042A               	iorwf	___xxtofl@val+1,w
  5079  176B  0429               	iorwf	___xxtofl@val,w
  5080  176C  1D03               	skipz
  5081  176D  2F6F               	goto	u3741
  5082  176E  2F70               	goto	u3740
  5083  176F                     u3741:
  5084  176F  2F79               	goto	l2746
  5085  1770                     u3740:
  5086  1770                     l2742:
  5087  1770  3000               	movlw	0
  5088  1771  00AC               	movwf	?___xxtofl+3
  5089  1772  3000               	movlw	0
  5090  1773  00AB               	movwf	?___xxtofl+2
  5091  1774  3000               	movlw	0
  5092  1775  00AA               	movwf	?___xxtofl+1
  5093  1776  3000               	movlw	0
  5094  1777  00A9               	movwf	?___xxtofl
  5095  1778  2FFF               	goto	l775
  5096  1779                     l2746:
  5097  1779  3096               	movlw	150
  5098  177A  00AD               	movwf	??___xxtofl
  5099  177B  082D               	movf	??___xxtofl,w
  5100  177C  00B2               	movwf	___xxtofl@exp
  5101  177D  2F8B               	goto	l2750
  5102  177E                     l2748:
  5103  177E  3001               	movlw	1
  5104  177F  00AD               	movwf	??___xxtofl
  5105  1780  082D               	movf	??___xxtofl,w
  5106  1781  07B2               	addwf	___xxtofl@exp,f
  5107  1782  3001               	movlw	1
  5108  1783                     u3755:
  5109  1783  1003               	clrc
  5110  1784  0CB6               	rrf	___xxtofl@arg+3,f
  5111  1785  0CB5               	rrf	___xxtofl@arg+2,f
  5112  1786  0CB4               	rrf	___xxtofl@arg+1,f
  5113  1787  0CB3               	rrf	___xxtofl@arg,f
  5114  1788  3EFF               	addlw	-1
  5115  1789  1D03               	skipz
  5116  178A  2F83               	goto	u3755
  5117  178B                     l2750:
  5118  178B  30FE               	movlw	254
  5119  178C  0536               	andwf	___xxtofl@arg+3,w
  5120  178D  1D03               	btfss	3,2
  5121  178E  2F90               	goto	u3761
  5122  178F  2F91               	goto	u3760
  5123  1790                     u3761:
  5124  1790  2F7E               	goto	l2748
  5125  1791                     u3760:
  5126  1791  2FAD               	goto	l779
  5127  1792                     l2752:
  5128  1792  3001               	movlw	1
  5129  1793  00AD               	movwf	??___xxtofl
  5130  1794  082D               	movf	??___xxtofl,w
  5131  1795  07B2               	addwf	___xxtofl@exp,f
  5132  1796                     l2754:
  5133  1796  3001               	movlw	1
  5134  1797  07B3               	addwf	___xxtofl@arg,f
  5135  1798  3000               	movlw	0
  5136  1799  1803               	skipnc
  5137  179A  3001               	movlw	1
  5138  179B  07B4               	addwf	___xxtofl@arg+1,f
  5139  179C  3000               	movlw	0
  5140  179D  1803               	skipnc
  5141  179E  3001               	movlw	1
  5142  179F  07B5               	addwf	___xxtofl@arg+2,f
  5143  17A0  3000               	movlw	0
  5144  17A1  1803               	skipnc
  5145  17A2  3001               	movlw	1
  5146  17A3  07B6               	addwf	___xxtofl@arg+3,f
  5147  17A4                     l2756:
  5148  17A4  3001               	movlw	1
  5149  17A5                     u3775:
  5150  17A5  1003               	clrc
  5151  17A6  0CB6               	rrf	___xxtofl@arg+3,f
  5152  17A7  0CB5               	rrf	___xxtofl@arg+2,f
  5153  17A8  0CB4               	rrf	___xxtofl@arg+1,f
  5154  17A9  0CB3               	rrf	___xxtofl@arg,f
  5155  17AA  3EFF               	addlw	-1
  5156  17AB  1D03               	skipz
  5157  17AC  2FA5               	goto	u3775
  5158  17AD                     l779:
  5159  17AD  30FF               	movlw	255
  5160  17AE  0536               	andwf	___xxtofl@arg+3,w
  5161  17AF  1D03               	btfss	3,2
  5162  17B0  2FB2               	goto	u3781
  5163  17B1  2FB3               	goto	u3780
  5164  17B2                     u3781:
  5165  17B2  2F92               	goto	l2752
  5166  17B3                     u3780:
  5167  17B3  2FBF               	goto	l2760
  5168  17B4                     l2758:
  5169  17B4  3001               	movlw	1
  5170  17B5  02B2               	subwf	___xxtofl@exp,f
  5171  17B6  3001               	movlw	1
  5172  17B7  00AD               	movwf	??___xxtofl
  5173  17B8                     u3795:
  5174  17B8  1003               	clrc
  5175  17B9  0DB3               	rlf	___xxtofl@arg,f
  5176  17BA  0DB4               	rlf	___xxtofl@arg+1,f
  5177  17BB  0DB5               	rlf	___xxtofl@arg+2,f
  5178  17BC  0DB6               	rlf	___xxtofl@arg+3,f
  5179  17BD  0BAD               	decfsz	??___xxtofl,f
  5180  17BE  2FB8               	goto	u3795
  5181  17BF                     l2760:
  5182  17BF  1BB5               	btfsc	___xxtofl@arg+2,7
  5183  17C0  2FC2               	goto	u3801
  5184  17C1  2FC3               	goto	u3800
  5185  17C2                     u3801:
  5186  17C2  2FC9               	goto	l786
  5187  17C3                     u3800:
  5188  17C3                     l2762:
  5189  17C3  3002               	movlw	2
  5190  17C4  0232               	subwf	___xxtofl@exp,w
  5191  17C5  1803               	skipnc
  5192  17C6  2FC8               	goto	u3811
  5193  17C7  2FC9               	goto	u3810
  5194  17C8                     u3811:
  5195  17C8  2FB4               	goto	l2758
  5196  17C9                     u3810:
  5197  17C9                     l786:
  5198  17C9  1832               	btfsc	___xxtofl@exp,0
  5199  17CA  2FCC               	goto	u3821
  5200  17CB  2FCD               	goto	u3820
  5201  17CC                     u3821:
  5202  17CC  2FD5               	goto	l787
  5203  17CD                     u3820:
  5204  17CD                     l2764:
  5205  17CD  30FF               	movlw	255
  5206  17CE  05B3               	andwf	___xxtofl@arg,f
  5207  17CF  30FF               	movlw	255
  5208  17D0  05B4               	andwf	___xxtofl@arg+1,f
  5209  17D1  307F               	movlw	127
  5210  17D2  05B5               	andwf	___xxtofl@arg+2,f
  5211  17D3  30FF               	movlw	255
  5212  17D4  05B6               	andwf	___xxtofl@arg+3,f
  5213  17D5                     l787:
  5214  17D5  1003               	clrc
  5215  17D6  0CB2               	rrf	___xxtofl@exp,f
  5216  17D7                     l2766:
  5217  17D7  0832               	movf	___xxtofl@exp,w
  5218  17D8  00AD               	movwf	??___xxtofl
  5219  17D9  01AE               	clrf	??___xxtofl+1
  5220  17DA  01AF               	clrf	??___xxtofl+2
  5221  17DB  01B0               	clrf	??___xxtofl+3
  5222  17DC  3018               	movlw	24
  5223  17DD                     u3835:
  5224  17DD  1003               	clrc
  5225  17DE  0DAD               	rlf	??___xxtofl,f
  5226  17DF  0DAE               	rlf	??___xxtofl+1,f
  5227  17E0  0DAF               	rlf	??___xxtofl+2,f
  5228  17E1  0DB0               	rlf	??___xxtofl+3,f
  5229  17E2                     u3830:
  5230  17E2  3EFF               	addlw	-1
  5231  17E3  1D03               	skipz
  5232  17E4  2FDD               	goto	u3835
  5233  17E5  082D               	movf	??___xxtofl,w
  5234  17E6  04B3               	iorwf	___xxtofl@arg,f
  5235  17E7  082E               	movf	??___xxtofl+1,w
  5236  17E8  04B4               	iorwf	___xxtofl@arg+1,f
  5237  17E9  082F               	movf	??___xxtofl+2,w
  5238  17EA  04B5               	iorwf	___xxtofl@arg+2,f
  5239  17EB  0830               	movf	??___xxtofl+3,w
  5240  17EC  04B6               	iorwf	___xxtofl@arg+3,f
  5241  17ED                     l2768:
  5242  17ED  0831               	movf	___xxtofl@sign,w
  5243  17EE  1903               	btfsc	3,2
  5244  17EF  2FF1               	goto	u3841
  5245  17F0  2FF2               	goto	u3840
  5246  17F1                     u3841:
  5247  17F1  2FF7               	goto	l2774
  5248  17F2                     u3840:
  5249  17F2                     l2770:
  5250  17F2  1FAC               	btfss	___xxtofl@val+3,7
  5251  17F3  2FF5               	goto	u3851
  5252  17F4  2FF6               	goto	u3850
  5253  17F5                     u3851:
  5254  17F5  2FF7               	goto	l2774
  5255  17F6                     u3850:
  5256  17F6                     l2772:
  5257  17F6  17B6               	bsf	___xxtofl@arg+3,7
  5258  17F7                     l2774:
  5259  17F7  0836               	movf	___xxtofl@arg+3,w
  5260  17F8  00AC               	movwf	?___xxtofl+3
  5261  17F9  0835               	movf	___xxtofl@arg+2,w
  5262  17FA  00AB               	movwf	?___xxtofl+2
  5263  17FB  0834               	movf	___xxtofl@arg+1,w
  5264  17FC  00AA               	movwf	?___xxtofl+1
  5265  17FD  0833               	movf	___xxtofl@arg,w
  5266  17FE  00A9               	movwf	?___xxtofl
  5267  17FF                     l775:
  5268  17FF  0008               	return
  5269  1800                     __end_of___xxtofl:
  5270                           
  5271                           	psect	text20
  5272  12FA                     __ptext20:	
  5273 ;; *************** function ___wmul *****************
  5274 ;; Defined at:
  5275 ;;		line 15 in file "C:\Program Files\Microchip\xc8\v2.32\pic\sources\c90\common\Umul16.c"
  5276 ;; Parameters:    Size  Location     Type
  5277 ;;  multiplier      2    5[BANK0 ] unsigned int 
  5278 ;;  multiplicand    2    7[BANK0 ] unsigned int 
  5279 ;; Auto vars:     Size  Location     Type
  5280 ;;  product         2    8[COMMON] unsigned int 
  5281 ;; Return value:  Size  Location     Type
  5282 ;;                  2    5[BANK0 ] unsigned int 
  5283 ;; Registers used:
  5284 ;;		wreg, status,2, status,0
  5285 ;; Tracked objects:
  5286 ;;		On entry : 0/0
  5287 ;;		On exit  : 0/0
  5288 ;;		Unchanged: 0/0
  5289 ;; Data sizes:     COMMON   BANK0   BANK1   BANK3   BANK2
  5290 ;;      Params:         0       4       0       0       0
  5291 ;;      Locals:         2       0       0       0       0
  5292 ;;      Temps:          0       0       0       0       0
  5293 ;;      Totals:         2       4       0       0       0
  5294 ;;Total ram usage:        6 bytes
  5295 ;; Hardware stack levels used: 1
  5296 ;; Hardware stack levels required when called: 1
  5297 ;; This function calls:
  5298 ;;		Nothing
  5299 ;; This function is called by:
  5300 ;;		_ADC_convert
  5301 ;; This function uses a non-reentrant model
  5302 ;;
  5303                           
  5304                           
  5305                           ;psect for function ___wmul
  5306  12FA                     ___wmul:
  5307  12FA                     l3112:	
  5308                           ;incstack = 0
  5309                           ; Regs used in ___wmul: [wreg+status,2+status,0]
  5310                           
  5311  12FA  01F8               	clrf	___wmul@product
  5312  12FB  01F9               	clrf	___wmul@product+1
  5313  12FC                     l3114:
  5314  12FC  1283               	bcf	3,5	;RP0=0, select bank0
  5315  12FD  1303               	bcf	3,6	;RP1=0, select bank0
  5316  12FE  1C25               	btfss	___wmul@multiplier,0
  5317  12FF  2B01               	goto	u4141
  5318  1300  2B02               	goto	u4140
  5319  1301                     u4141:
  5320  1301  2B08               	goto	l340
  5321  1302                     u4140:
  5322  1302                     l3116:
  5323  1302  0827               	movf	___wmul@multiplicand,w
  5324  1303  07F8               	addwf	___wmul@product,f
  5325  1304  1803               	skipnc
  5326  1305  0AF9               	incf	___wmul@product+1,f
  5327  1306  0828               	movf	___wmul@multiplicand+1,w
  5328  1307  07F9               	addwf	___wmul@product+1,f
  5329  1308                     l340:
  5330  1308  3001               	movlw	1
  5331  1309                     u4155:
  5332  1309  1003               	clrc
  5333  130A  0DA7               	rlf	___wmul@multiplicand,f
  5334  130B  0DA8               	rlf	___wmul@multiplicand+1,f
  5335  130C  3EFF               	addlw	-1
  5336  130D  1D03               	skipz
  5337  130E  2B09               	goto	u4155
  5338  130F                     l3118:
  5339  130F  3001               	movlw	1
  5340  1310                     u4165:
  5341  1310  1003               	clrc
  5342  1311  0CA6               	rrf	___wmul@multiplier+1,f
  5343  1312  0CA5               	rrf	___wmul@multiplier,f
  5344  1313  3EFF               	addlw	-1
  5345  1314  1D03               	skipz
  5346  1315  2B10               	goto	u4165
  5347  1316                     l3120:
  5348  1316  0825               	movf	___wmul@multiplier,w
  5349  1317  0426               	iorwf	___wmul@multiplier+1,w
  5350  1318  1D03               	btfss	3,2
  5351  1319  2B1B               	goto	u4171
  5352  131A  2B1C               	goto	u4170
  5353  131B                     u4171:
  5354  131B  2AFC               	goto	l3114
  5355  131C                     u4170:
  5356  131C                     l3122:
  5357  131C  0879               	movf	___wmul@product+1,w
  5358  131D  00A6               	movwf	?___wmul+1
  5359  131E  0878               	movf	___wmul@product,w
  5360  131F  00A5               	movwf	?___wmul
  5361  1320                     l342:
  5362  1320  0008               	return
  5363  1321                     __end_of___wmul:
  5364                           
  5365                           	psect	text21
  5366  0807                     __ptext21:	
  5367 ;; *************** function ___fltol *****************
  5368 ;; Defined at:
  5369 ;;		line 43 in file "C:\Program Files\Microchip\xc8\v2.32\pic\sources\c90\common\fltol.c"
  5370 ;; Parameters:    Size  Location     Type
  5371 ;;  f1              4    2[COMMON] unsigned int 
  5372 ;; Auto vars:     Size  Location     Type
  5373 ;;  exp1            1    7[COMMON] unsigned char 
  5374 ;;  sign1           1    6[COMMON] unsigned char 
  5375 ;; Return value:  Size  Location     Type
  5376 ;;                  4    2[COMMON] long 
  5377 ;; Registers used:
  5378 ;;		wreg, status,2, status,0
  5379 ;; Tracked objects:
  5380 ;;		On entry : 0/0
  5381 ;;		On exit  : 0/0
  5382 ;;		Unchanged: 0/0
  5383 ;; Data sizes:     COMMON   BANK0   BANK1   BANK3   BANK2
  5384 ;;      Params:         4       0       0       0       0
  5385 ;;      Locals:         2       0       0       0       0
  5386 ;;      Temps:          0       5       0       0       0
  5387 ;;      Totals:         6       5       0       0       0
  5388 ;;Total ram usage:       11 bytes
  5389 ;; Hardware stack levels used: 1
  5390 ;; Hardware stack levels required when called: 1
  5391 ;; This function calls:
  5392 ;;		Nothing
  5393 ;; This function is called by:
  5394 ;;		_main
  5395 ;;		_ADC_convert
  5396 ;; This function uses a non-reentrant model
  5397 ;;
  5398                           
  5399                           
  5400                           ;psect for function ___fltol
  5401  0807                     ___fltol:
  5402  0807                     l3170:	
  5403                           ;incstack = 0
  5404                           ; Regs used in ___fltol: [wreg+status,2+status,0]
  5405                           
  5406  0807  1003               	clrc
  5407  0808  0D74               	rlf	___fltol@f1+2,w
  5408  0809  0D75               	rlf	___fltol@f1+3,w
  5409  080A  1283               	bcf	3,5	;RP0=0, select bank0
  5410  080B  1303               	bcf	3,6	;RP1=0, select bank0
  5411  080C  00A0               	movwf	??___fltol
  5412  080D  0820               	movf	??___fltol,w
  5413  080E  00F7               	movwf	___fltol@exp1
  5414  080F  0877               	movf	___fltol@exp1,w
  5415  0810  1D03               	btfss	3,2
  5416  0811  2813               	goto	u4281
  5417  0812  2814               	goto	u4280
  5418  0813                     u4281:
  5419  0813  281D               	goto	l3176
  5420  0814                     u4280:
  5421  0814                     l3172:
  5422  0814  3000               	movlw	0
  5423  0815  00F5               	movwf	?___fltol+3
  5424  0816  3000               	movlw	0
  5425  0817  00F4               	movwf	?___fltol+2
  5426  0818  3000               	movlw	0
  5427  0819  00F3               	movwf	?___fltol+1
  5428  081A  3000               	movlw	0
  5429  081B  00F2               	movwf	?___fltol
  5430  081C  2882               	goto	l526
  5431  081D                     l3176:
  5432  081D  0872               	movf	___fltol@f1,w
  5433  081E  00A0               	movwf	??___fltol
  5434  081F  0873               	movf	___fltol@f1+1,w
  5435  0820  00A1               	movwf	??___fltol+1
  5436  0821  0874               	movf	___fltol@f1+2,w
  5437  0822  00A2               	movwf	??___fltol+2
  5438  0823  0875               	movf	___fltol@f1+3,w
  5439  0824  00A3               	movwf	??___fltol+3
  5440  0825  301F               	movlw	31
  5441  0826                     u4295:
  5442  0826  1003               	clrc
  5443  0827  0CA3               	rrf	??___fltol+3,f
  5444  0828  0CA2               	rrf	??___fltol+2,f
  5445  0829  0CA1               	rrf	??___fltol+1,f
  5446  082A  0CA0               	rrf	??___fltol,f
  5447  082B                     u4290:
  5448  082B  3EFF               	addlw	-1
  5449  082C  1D03               	skipz
  5450  082D  2826               	goto	u4295
  5451  082E  0820               	movf	??___fltol,w
  5452  082F  00A4               	movwf	??___fltol+4
  5453  0830  0824               	movf	??___fltol+4,w
  5454  0831  00F6               	movwf	___fltol@sign1
  5455  0832                     l3178:
  5456  0832  17F4               	bsf	___fltol@f1+2,7
  5457  0833                     l3180:
  5458  0833  30FF               	movlw	255
  5459  0834  05F2               	andwf	___fltol@f1,f
  5460  0835  30FF               	movlw	255
  5461  0836  05F3               	andwf	___fltol@f1+1,f
  5462  0837  30FF               	movlw	255
  5463  0838  05F4               	andwf	___fltol@f1+2,f
  5464  0839  3000               	movlw	0
  5465  083A  05F5               	andwf	___fltol@f1+3,f
  5466  083B                     l3182:
  5467  083B  3096               	movlw	150
  5468  083C  02F7               	subwf	___fltol@exp1,f
  5469  083D                     l3184:
  5470  083D  1FF7               	btfss	___fltol@exp1,7
  5471  083E  2840               	goto	u4301
  5472  083F  2841               	goto	u4300
  5473  0840                     u4301:
  5474  0840  285B               	goto	l3194
  5475  0841                     u4300:
  5476  0841                     l3186:
  5477  0841  0877               	movf	___fltol@exp1,w
  5478  0842  3A80               	xorlw	128
  5479  0843  3E97               	addlw	151
  5480  0844  1803               	skipnc
  5481  0845  2847               	goto	u4311
  5482  0846  2848               	goto	u4310
  5483  0847                     u4311:
  5484  0847  2849               	goto	l3192
  5485  0848                     u4310:
  5486  0848  2814               	goto	l3172
  5487  0849                     l3192:
  5488  0849  3001               	movlw	1
  5489  084A                     u4325:
  5490  084A  1003               	clrc
  5491  084B  0CF5               	rrf	___fltol@f1+3,f
  5492  084C  0CF4               	rrf	___fltol@f1+2,f
  5493  084D  0CF3               	rrf	___fltol@f1+1,f
  5494  084E  0CF2               	rrf	___fltol@f1,f
  5495  084F  3EFF               	addlw	-1
  5496  0850  1D03               	skipz
  5497  0851  284A               	goto	u4325
  5498  0852  3001               	movlw	1
  5499  0853  00A0               	movwf	??___fltol
  5500  0854  0820               	movf	??___fltol,w
  5501  0855  07F7               	addwf	___fltol@exp1,f
  5502  0856  1D03               	btfss	3,2
  5503  0857  2859               	goto	u4331
  5504  0858  285A               	goto	u4330
  5505  0859                     u4331:
  5506  0859  2849               	goto	l3192
  5507  085A                     u4330:
  5508  085A  2872               	goto	l3202
  5509  085B                     l3194:
  5510  085B  3020               	movlw	32
  5511  085C  0277               	subwf	___fltol@exp1,w
  5512  085D  1C03               	skipc
  5513  085E  2860               	goto	u4341
  5514  085F  2861               	goto	u4340
  5515  0860                     u4341:
  5516  0860  286D               	goto	l533
  5517  0861                     u4340:
  5518  0861  2814               	goto	l3172
  5519  0862                     l3200:
  5520  0862  3001               	movlw	1
  5521  0863  00A0               	movwf	??___fltol
  5522  0864                     u4355:
  5523  0864  1003               	clrc
  5524  0865  0DF2               	rlf	___fltol@f1,f
  5525  0866  0DF3               	rlf	___fltol@f1+1,f
  5526  0867  0DF4               	rlf	___fltol@f1+2,f
  5527  0868  0DF5               	rlf	___fltol@f1+3,f
  5528  0869  0BA0               	decfsz	??___fltol,f
  5529  086A  2864               	goto	u4355
  5530  086B  3001               	movlw	1
  5531  086C  02F7               	subwf	___fltol@exp1,f
  5532  086D                     l533:
  5533  086D  0877               	movf	___fltol@exp1,w
  5534  086E  1D03               	btfss	3,2
  5535  086F  2871               	goto	u4361
  5536  0870  2872               	goto	u4360
  5537  0871                     u4361:
  5538  0871  2862               	goto	l3200
  5539  0872                     u4360:
  5540  0872                     l3202:
  5541  0872  0876               	movf	___fltol@sign1,w
  5542  0873  1903               	btfsc	3,2
  5543  0874  2876               	goto	u4371
  5544  0875  2877               	goto	u4370
  5545  0876                     u4371:
  5546  0876  2882               	goto	l536
  5547  0877                     u4370:
  5548  0877                     l3204:
  5549  0877  09F2               	comf	___fltol@f1,f
  5550  0878  09F3               	comf	___fltol@f1+1,f
  5551  0879  09F4               	comf	___fltol@f1+2,f
  5552  087A  09F5               	comf	___fltol@f1+3,f
  5553  087B  0AF2               	incf	___fltol@f1,f
  5554  087C  1903               	skipnz
  5555  087D  0AF3               	incf	___fltol@f1+1,f
  5556  087E  1903               	skipnz
  5557  087F  0AF4               	incf	___fltol@f1+2,f
  5558  0880  1903               	skipnz
  5559  0881  0AF5               	incf	___fltol@f1+3,f
  5560  0882                     l536:
  5561  0882                     l526:
  5562  0882  0008               	return
  5563  0883                     __end_of___fltol:
  5564                           
  5565                           	psect	text22
  5566  12D6                     __ptext22:	
  5567 ;; *************** function ___flsub *****************
  5568 ;; Defined at:
  5569 ;;		line 242 in file "C:\Program Files\Microchip\xc8\v2.32\pic\sources\c90\common\sprcadd.c"
  5570 ;; Parameters:    Size  Location     Type
  5571 ;;  a               4   23[BANK0 ] long 
  5572 ;;  b               4   27[BANK0 ] long 
  5573 ;; Auto vars:     Size  Location     Type
  5574 ;;		None
  5575 ;; Return value:  Size  Location     Type
  5576 ;;                  4   23[BANK0 ] long 
  5577 ;; Registers used:
  5578 ;;		wreg, status,2, status,0, btemp+1, pclath, cstack
  5579 ;; Tracked objects:
  5580 ;;		On entry : 0/0
  5581 ;;		On exit  : 0/0
  5582 ;;		Unchanged: 0/0
  5583 ;; Data sizes:     COMMON   BANK0   BANK1   BANK3   BANK2
  5584 ;;      Params:         0       8       0       0       0
  5585 ;;      Locals:         0       0       0       0       0
  5586 ;;      Temps:          0       0       0       0       0
  5587 ;;      Totals:         0       8       0       0       0
  5588 ;;Total ram usage:        8 bytes
  5589 ;; Hardware stack levels used: 1
  5590 ;; Hardware stack levels required when called: 2
  5591 ;; This function calls:
  5592 ;;		___fladd
  5593 ;; This function is called by:
  5594 ;;		_ADC_convert
  5595 ;; This function uses a non-reentrant model
  5596 ;;
  5597                           
  5598                           
  5599                           ;psect for function ___flsub
  5600  12D6                     ___flsub:
  5601  12D6                     l2446:	
  5602                           ;incstack = 0
  5603                           ; Regs used in ___flsub: [wreg+status,2+status,0+btemp+1+pclath+cstack]
  5604                           
  5605  12D6  3080               	movlw	128
  5606  12D7  1283               	bcf	3,5	;RP0=0, select bank0
  5607  12D8  1303               	bcf	3,6	;RP1=0, select bank0
  5608  12D9  06BA               	xorwf	___flsub@a+3,f
  5609  12DA                     l2448:
  5610  12DA  083E               	movf	___flsub@b+3,w
  5611  12DB  00F5               	movwf	___fladd@b+3
  5612  12DC  083D               	movf	___flsub@b+2,w
  5613  12DD  00F4               	movwf	___fladd@b+2
  5614  12DE  083C               	movf	___flsub@b+1,w
  5615  12DF  00F3               	movwf	___fladd@b+1
  5616  12E0  083B               	movf	___flsub@b,w
  5617  12E1  00F2               	movwf	___fladd@b
  5618  12E2  083A               	movf	___flsub@a+3,w
  5619  12E3  00F9               	movwf	___fladd@a+3
  5620  12E4  0839               	movf	___flsub@a+2,w
  5621  12E5  00F8               	movwf	___fladd@a+2
  5622  12E6  0838               	movf	___flsub@a+1,w
  5623  12E7  00F7               	movwf	___fladd@a+1
  5624  12E8  0837               	movf	___flsub@a,w
  5625  12E9  00F6               	movwf	___fladd@a
  5626  12EA  120A  158A  2260  160A  118A  	fcall	___fladd
  5627  12EF  0875               	movf	?___fladd+3,w
  5628  12F0  1283               	bcf	3,5	;RP0=0, select bank0
  5629  12F1  1303               	bcf	3,6	;RP1=0, select bank0
  5630  12F2  00BA               	movwf	?___flsub+3
  5631  12F3  0874               	movf	?___fladd+2,w
  5632  12F4  00B9               	movwf	?___flsub+2
  5633  12F5  0873               	movf	?___fladd+1,w
  5634  12F6  00B8               	movwf	?___flsub+1
  5635  12F7  0872               	movf	?___fladd,w
  5636  12F8  00B7               	movwf	?___flsub
  5637  12F9                     l679:
  5638  12F9  0008               	return
  5639  12FA                     __end_of___flsub:
  5640                           
  5641                           	psect	text23
  5642  0A60                     __ptext23:	
  5643 ;; *************** function ___fladd *****************
  5644 ;; Defined at:
  5645 ;;		line 10 in file "C:\Program Files\Microchip\xc8\v2.32\pic\sources\c90\common\sprcadd.c"
  5646 ;; Parameters:    Size  Location     Type
  5647 ;;  b               4    2[COMMON] long 
  5648 ;;  a               4    6[COMMON] long 
  5649 ;; Auto vars:     Size  Location     Type
  5650 ;;  grs             1   11[BANK0 ] unsigned char 
  5651 ;;  bexp            1   10[BANK0 ] unsigned char 
  5652 ;;  aexp            1    9[BANK0 ] unsigned char 
  5653 ;;  signs           1    8[BANK0 ] unsigned char 
  5654 ;; Return value:  Size  Location     Type
  5655 ;;                  4    2[COMMON] unsigned char 
  5656 ;; Registers used:
  5657 ;;		wreg, status,2, status,0, btemp+1
  5658 ;; Tracked objects:
  5659 ;;		On entry : 0/0
  5660 ;;		On exit  : 0/0
  5661 ;;		Unchanged: 0/0
  5662 ;; Data sizes:     COMMON   BANK0   BANK1   BANK3   BANK2
  5663 ;;      Params:         8       0       0       0       0
  5664 ;;      Locals:         0       4       0       0       0
  5665 ;;      Temps:          0       8       0       0       0
  5666 ;;      Totals:         8      12       0       0       0
  5667 ;;Total ram usage:       20 bytes
  5668 ;; Hardware stack levels used: 1
  5669 ;; Hardware stack levels required when called: 1
  5670 ;; This function calls:
  5671 ;;		Nothing
  5672 ;; This function is called by:
  5673 ;;		___flsub
  5674 ;; This function uses a non-reentrant model
  5675 ;;
  5676                           
  5677                           
  5678                           ;psect for function ___fladd
  5679  0A60                     ___fladd:
  5680  0A60                     l2040:	
  5681                           ;incstack = 0
  5682                           ; Regs used in ___fladd: [wreg+status,2+status,0+btemp+1]
  5683                           
  5684  0A60  0875               	movf	___fladd@b+3,w
  5685  0A61  3980               	andlw	128
  5686  0A62  1283               	bcf	3,5	;RP0=0, select bank0
  5687  0A63  1303               	bcf	3,6	;RP1=0, select bank0
  5688  0A64  00A0               	movwf	??___fladd
  5689  0A65  0820               	movf	??___fladd,w
  5690  0A66  00A8               	movwf	___fladd@signs
  5691  0A67                     l2042:
  5692  0A67  0875               	movf	___fladd@b+3,w
  5693  0A68  00A0               	movwf	??___fladd
  5694  0A69  0720               	addwf	??___fladd,w
  5695  0A6A  00A1               	movwf	??___fladd+1
  5696  0A6B  0821               	movf	??___fladd+1,w
  5697  0A6C  00AA               	movwf	___fladd@bexp
  5698  0A6D                     l2044:
  5699  0A6D  1FF4               	btfss	___fladd@b+2,7
  5700  0A6E  2A70               	goto	u2131
  5701  0A6F  2A71               	goto	u2130
  5702  0A70                     u2131:
  5703  0A70  2A72               	goto	l2048
  5704  0A71                     u2130:
  5705  0A71                     l2046:
  5706  0A71  142A               	bsf	___fladd@bexp,0
  5707  0A72                     l2048:
  5708  0A72  082A               	movf	___fladd@bexp,w
  5709  0A73  1903               	btfsc	3,2
  5710  0A74  2A76               	goto	u2141
  5711  0A75  2A77               	goto	u2140
  5712  0A76                     u2141:
  5713  0A76  2A87               	goto	l2058
  5714  0A77                     u2140:
  5715  0A77                     l2050:
  5716  0A77  0A2A               	incf	___fladd@bexp,w
  5717  0A78  1D03               	btfss	3,2
  5718  0A79  2A7B               	goto	u2151
  5719  0A7A  2A7C               	goto	u2150
  5720  0A7B                     u2151:
  5721  0A7B  2A84               	goto	l2054
  5722  0A7C                     u2150:
  5723  0A7C                     l2052:
  5724  0A7C  3000               	movlw	0
  5725  0A7D  00F5               	movwf	___fladd@b+3
  5726  0A7E  3000               	movlw	0
  5727  0A7F  00F4               	movwf	___fladd@b+2
  5728  0A80  3000               	movlw	0
  5729  0A81  00F3               	movwf	___fladd@b+1
  5730  0A82  3000               	movlw	0
  5731  0A83  00F2               	movwf	___fladd@b
  5732  0A84                     l2054:
  5733  0A84  17F4               	bsf	___fladd@b+2,7
  5734  0A85                     l2056:
  5735  0A85  01F5               	clrf	___fladd@b+3
  5736  0A86  2A8F               	goto	l2060
  5737  0A87                     l2058:
  5738  0A87  3000               	movlw	0
  5739  0A88  00F5               	movwf	___fladd@b+3
  5740  0A89  3000               	movlw	0
  5741  0A8A  00F4               	movwf	___fladd@b+2
  5742  0A8B  3000               	movlw	0
  5743  0A8C  00F3               	movwf	___fladd@b+1
  5744  0A8D  3000               	movlw	0
  5745  0A8E  00F2               	movwf	___fladd@b
  5746  0A8F                     l2060:
  5747  0A8F  0879               	movf	___fladd@a+3,w
  5748  0A90  3980               	andlw	128
  5749  0A91  00A0               	movwf	??___fladd
  5750  0A92  0820               	movf	??___fladd,w
  5751  0A93  00A9               	movwf	___fladd@aexp
  5752  0A94                     l2062:
  5753  0A94  0829               	movf	___fladd@aexp,w
  5754  0A95  0628               	xorwf	___fladd@signs,w
  5755  0A96  1903               	skipnz
  5756  0A97  2A99               	goto	u2161
  5757  0A98  2A9A               	goto	u2160
  5758  0A99                     u2161:
  5759  0A99  2A9B               	goto	l2066
  5760  0A9A                     u2160:
  5761  0A9A                     l2064:
  5762  0A9A  1728               	bsf	___fladd@signs,6
  5763  0A9B                     l2066:
  5764  0A9B  0879               	movf	___fladd@a+3,w
  5765  0A9C  00A0               	movwf	??___fladd
  5766  0A9D  0720               	addwf	??___fladd,w
  5767  0A9E  00A1               	movwf	??___fladd+1
  5768  0A9F  0821               	movf	??___fladd+1,w
  5769  0AA0  00A9               	movwf	___fladd@aexp
  5770  0AA1                     l2068:
  5771  0AA1  1FF8               	btfss	___fladd@a+2,7
  5772  0AA2  2AA4               	goto	u2171
  5773  0AA3  2AA5               	goto	u2170
  5774  0AA4                     u2171:
  5775  0AA4  2AA6               	goto	l2072
  5776  0AA5                     u2170:
  5777  0AA5                     l2070:
  5778  0AA5  1429               	bsf	___fladd@aexp,0
  5779  0AA6                     l2072:
  5780  0AA6  0829               	movf	___fladd@aexp,w
  5781  0AA7  1903               	btfsc	3,2
  5782  0AA8  2AAA               	goto	u2181
  5783  0AA9  2AAB               	goto	u2180
  5784  0AAA                     u2181:
  5785  0AAA  2ABB               	goto	l2082
  5786  0AAB                     u2180:
  5787  0AAB                     l2074:
  5788  0AAB  0A29               	incf	___fladd@aexp,w
  5789  0AAC  1D03               	btfss	3,2
  5790  0AAD  2AAF               	goto	u2191
  5791  0AAE  2AB0               	goto	u2190
  5792  0AAF                     u2191:
  5793  0AAF  2AB8               	goto	l2078
  5794  0AB0                     u2190:
  5795  0AB0                     l2076:
  5796  0AB0  3000               	movlw	0
  5797  0AB1  00F9               	movwf	___fladd@a+3
  5798  0AB2  3000               	movlw	0
  5799  0AB3  00F8               	movwf	___fladd@a+2
  5800  0AB4  3000               	movlw	0
  5801  0AB5  00F7               	movwf	___fladd@a+1
  5802  0AB6  3000               	movlw	0
  5803  0AB7  00F6               	movwf	___fladd@a
  5804  0AB8                     l2078:
  5805  0AB8  17F8               	bsf	___fladd@a+2,7
  5806  0AB9                     l2080:
  5807  0AB9  01F9               	clrf	___fladd@a+3
  5808  0ABA  2AC3               	goto	l633
  5809  0ABB                     l2082:
  5810  0ABB  3000               	movlw	0
  5811  0ABC  00F9               	movwf	___fladd@a+3
  5812  0ABD  3000               	movlw	0
  5813  0ABE  00F8               	movwf	___fladd@a+2
  5814  0ABF  3000               	movlw	0
  5815  0AC0  00F7               	movwf	___fladd@a+1
  5816  0AC1  3000               	movlw	0
  5817  0AC2  00F6               	movwf	___fladd@a
  5818  0AC3                     l633:
  5819  0AC3  082A               	movf	___fladd@bexp,w
  5820  0AC4  0229               	subwf	___fladd@aexp,w
  5821  0AC5  1803               	skipnc
  5822  0AC6  2AC8               	goto	u2201
  5823  0AC7  2AC9               	goto	u2200
  5824  0AC8                     u2201:
  5825  0AC8  2B0D               	goto	l2118
  5826  0AC9                     u2200:
  5827  0AC9                     l2084:
  5828  0AC9  1F28               	btfss	___fladd@signs,6
  5829  0ACA  2ACC               	goto	u2211
  5830  0ACB  2ACD               	goto	u2210
  5831  0ACC                     u2211:
  5832  0ACC  2AD1               	goto	l2088
  5833  0ACD                     u2210:
  5834  0ACD                     l2086:
  5835  0ACD  3080               	movlw	128
  5836  0ACE  00A0               	movwf	??___fladd
  5837  0ACF  0820               	movf	??___fladd,w
  5838  0AD0  06A8               	xorwf	___fladd@signs,f
  5839  0AD1                     l2088:
  5840  0AD1  082A               	movf	___fladd@bexp,w
  5841  0AD2  00A0               	movwf	??___fladd
  5842  0AD3  0820               	movf	??___fladd,w
  5843  0AD4  00AB               	movwf	___fladd@grs
  5844  0AD5                     l2090:
  5845  0AD5  0829               	movf	___fladd@aexp,w
  5846  0AD6  00A0               	movwf	??___fladd
  5847  0AD7  0820               	movf	??___fladd,w
  5848  0AD8  00AA               	movwf	___fladd@bexp
  5849  0AD9                     l2092:
  5850  0AD9  082B               	movf	___fladd@grs,w
  5851  0ADA  00A0               	movwf	??___fladd
  5852  0ADB  0820               	movf	??___fladd,w
  5853  0ADC  00A9               	movwf	___fladd@aexp
  5854  0ADD                     l2094:
  5855  0ADD  0872               	movf	___fladd@b,w
  5856  0ADE  00A0               	movwf	??___fladd
  5857  0ADF  0820               	movf	??___fladd,w
  5858  0AE0  00AB               	movwf	___fladd@grs
  5859  0AE1                     l2096:
  5860  0AE1  0876               	movf	___fladd@a,w
  5861  0AE2  00A0               	movwf	??___fladd
  5862  0AE3  0820               	movf	??___fladd,w
  5863  0AE4  00F2               	movwf	___fladd@b
  5864  0AE5                     l2098:
  5865  0AE5  082B               	movf	___fladd@grs,w
  5866  0AE6  00A0               	movwf	??___fladd
  5867  0AE7  0820               	movf	??___fladd,w
  5868  0AE8  00F6               	movwf	___fladd@a
  5869  0AE9                     l2100:
  5870  0AE9  0873               	movf	___fladd@b+1,w
  5871  0AEA  00A0               	movwf	??___fladd
  5872  0AEB  0820               	movf	??___fladd,w
  5873  0AEC  00AB               	movwf	___fladd@grs
  5874  0AED                     l2102:
  5875  0AED  0877               	movf	___fladd@a+1,w
  5876  0AEE  00A0               	movwf	??___fladd
  5877  0AEF  0820               	movf	??___fladd,w
  5878  0AF0  00F3               	movwf	___fladd@b+1
  5879  0AF1                     l2104:
  5880  0AF1  082B               	movf	___fladd@grs,w
  5881  0AF2  00A0               	movwf	??___fladd
  5882  0AF3  0820               	movf	??___fladd,w
  5883  0AF4  00F7               	movwf	___fladd@a+1
  5884  0AF5                     l2106:
  5885  0AF5  0874               	movf	___fladd@b+2,w
  5886  0AF6  00A0               	movwf	??___fladd
  5887  0AF7  0820               	movf	??___fladd,w
  5888  0AF8  00AB               	movwf	___fladd@grs
  5889  0AF9                     l2108:
  5890  0AF9  0878               	movf	___fladd@a+2,w
  5891  0AFA  00A0               	movwf	??___fladd
  5892  0AFB  0820               	movf	??___fladd,w
  5893  0AFC  00F4               	movwf	___fladd@b+2
  5894  0AFD                     l2110:
  5895  0AFD  082B               	movf	___fladd@grs,w
  5896  0AFE  00A0               	movwf	??___fladd
  5897  0AFF  0820               	movf	??___fladd,w
  5898  0B00  00F8               	movwf	___fladd@a+2
  5899  0B01                     l2112:
  5900  0B01  0875               	movf	___fladd@b+3,w
  5901  0B02  00A0               	movwf	??___fladd
  5902  0B03  0820               	movf	??___fladd,w
  5903  0B04  00AB               	movwf	___fladd@grs
  5904  0B05                     l2114:
  5905  0B05  0879               	movf	___fladd@a+3,w
  5906  0B06  00A0               	movwf	??___fladd
  5907  0B07  0820               	movf	??___fladd,w
  5908  0B08  00F5               	movwf	___fladd@b+3
  5909  0B09                     l2116:
  5910  0B09  082B               	movf	___fladd@grs,w
  5911  0B0A  00A0               	movwf	??___fladd
  5912  0B0B  0820               	movf	??___fladd,w
  5913  0B0C  00F9               	movwf	___fladd@a+3
  5914  0B0D                     l2118:
  5915  0B0D  01AB               	clrf	___fladd@grs
  5916  0B0E                     l2120:
  5917  0B0E  0829               	movf	___fladd@aexp,w
  5918  0B0F  00A0               	movwf	??___fladd
  5919  0B10  01A1               	clrf	??___fladd+1
  5920  0B11  0821               	movf	??___fladd+1,w
  5921  0B12  00A3               	movwf	??___fladd+3
  5922  0B13  082A               	movf	___fladd@bexp,w
  5923  0B14  0220               	subwf	??___fladd,w
  5924  0B15  00A2               	movwf	??___fladd+2
  5925  0B16  1C03               	skipc
  5926  0B17  03A3               	decf	??___fladd+3,f
  5927  0B18  0823               	movf	??___fladd+3,w
  5928  0B19  3A80               	xorlw	128
  5929  0B1A  00FF               	movwf	btemp+1
  5930  0B1B  3080               	movlw	128
  5931  0B1C  027F               	subwf	btemp+1,w
  5932  0B1D  1D03               	skipz
  5933  0B1E  2B21               	goto	u2225
  5934  0B1F  301A               	movlw	26
  5935  0B20  0222               	subwf	??___fladd+2,w
  5936  0B21                     u2225:
  5937  0B21  1C03               	skipc
  5938  0B22  2B24               	goto	u2221
  5939  0B23  2B25               	goto	u2220
  5940  0B24                     u2221:
  5941  0B24  2B62               	goto	l2136
  5942  0B25                     u2220:
  5943  0B25                     l2122:
  5944  0B25  0875               	movf	___fladd@b+3,w
  5945  0B26  0474               	iorwf	___fladd@b+2,w
  5946  0B27  0473               	iorwf	___fladd@b+1,w
  5947  0B28  0472               	iorwf	___fladd@b,w
  5948  0B29  1D03               	skipz
  5949  0B2A  2B2C               	goto	u2231
  5950  0B2B  2B2E               	goto	u2230
  5951  0B2C                     u2231:
  5952  0B2C  3001               	movlw	1
  5953  0B2D  2B2F               	goto	u2240
  5954  0B2E                     u2230:
  5955  0B2E  3000               	movlw	0
  5956  0B2F                     u2240:
  5957  0B2F  1283               	bcf	3,5	;RP0=0, select bank0
  5958  0B30  1303               	bcf	3,6	;RP1=0, select bank0
  5959  0B31  00A0               	movwf	??___fladd
  5960  0B32  0820               	movf	??___fladd,w
  5961  0B33  00AB               	movwf	___fladd@grs
  5962  0B34  3000               	movlw	0
  5963  0B35  00F5               	movwf	___fladd@b+3
  5964  0B36  3000               	movlw	0
  5965  0B37  00F4               	movwf	___fladd@b+2
  5966  0B38  3000               	movlw	0
  5967  0B39  00F3               	movwf	___fladd@b+1
  5968  0B3A  3000               	movlw	0
  5969  0B3B  00F2               	movwf	___fladd@b
  5970  0B3C  0829               	movf	___fladd@aexp,w
  5971  0B3D  00A0               	movwf	??___fladd
  5972  0B3E  0820               	movf	??___fladd,w
  5973  0B3F  00AA               	movwf	___fladd@bexp
  5974  0B40  2B6A               	goto	l637
  5975  0B41                     l639:
  5976  0B41  1C2B               	btfss	___fladd@grs,0
  5977  0B42  2B44               	goto	u2251
  5978  0B43  2B45               	goto	u2250
  5979  0B44                     u2251:
  5980  0B44  2B4E               	goto	l2126
  5981  0B45                     u2250:
  5982  0B45                     l2124:
  5983  0B45  082B               	movf	___fladd@grs,w
  5984  0B46  00A0               	movwf	??___fladd
  5985  0B47  1003               	clrc
  5986  0B48  0C20               	rrf	??___fladd,w
  5987  0B49  3801               	iorlw	1
  5988  0B4A  00A1               	movwf	??___fladd+1
  5989  0B4B  0821               	movf	??___fladd+1,w
  5990  0B4C  00AB               	movwf	___fladd@grs
  5991  0B4D  2B50               	goto	l2128
  5992  0B4E                     l2126:
  5993  0B4E  1003               	clrc
  5994  0B4F  0CAB               	rrf	___fladd@grs,f
  5995  0B50                     l2128:
  5996  0B50  1C72               	btfss	___fladd@b,0
  5997  0B51  2B53               	goto	u2261
  5998  0B52  2B54               	goto	u2260
  5999  0B53                     u2261:
  6000  0B53  2B55               	goto	l2132
  6001  0B54                     u2260:
  6002  0B54                     l2130:
  6003  0B54  17AB               	bsf	___fladd@grs,7
  6004  0B55                     l2132:
  6005  0B55  3001               	movlw	1
  6006  0B56  00A0               	movwf	??___fladd
  6007  0B57                     u2275:
  6008  0B57  0D75               	rlf	___fladd@b+3,w
  6009  0B58  0CF5               	rrf	___fladd@b+3,f
  6010  0B59  0CF4               	rrf	___fladd@b+2,f
  6011  0B5A  0CF3               	rrf	___fladd@b+1,f
  6012  0B5B  0CF2               	rrf	___fladd@b,f
  6013  0B5C  0BA0               	decfsz	??___fladd& (0+127),f
  6014  0B5D  2B57               	goto	u2275
  6015  0B5E                     l2134:
  6016  0B5E  3001               	movlw	1
  6017  0B5F  00A0               	movwf	??___fladd
  6018  0B60  0820               	movf	??___fladd,w
  6019  0B61  07AA               	addwf	___fladd@bexp,f
  6020  0B62                     l2136:
  6021  0B62  1283               	bcf	3,5	;RP0=0, select bank0
  6022  0B63  1303               	bcf	3,6	;RP1=0, select bank0
  6023  0B64  0829               	movf	___fladd@aexp,w
  6024  0B65  022A               	subwf	___fladd@bexp,w
  6025  0B66  1C03               	skipc
  6026  0B67  2B69               	goto	u2281
  6027  0B68  2B6A               	goto	u2280
  6028  0B69                     u2281:
  6029  0B69  2B41               	goto	l639
  6030  0B6A                     u2280:
  6031  0B6A                     l637:
  6032  0B6A  1B28               	btfsc	___fladd@signs,6
  6033  0B6B  2B6D               	goto	u2291
  6034  0B6C  2B6E               	goto	u2290
  6035  0B6D                     u2291:
  6036  0B6D  2BB9               	goto	l2162
  6037  0B6E                     u2290:
  6038  0B6E                     l2138:
  6039  0B6E  082A               	movf	___fladd@bexp,w
  6040  0B6F  1D03               	btfss	3,2
  6041  0B70  2B72               	goto	u2301
  6042  0B71  2B73               	goto	u2300
  6043  0B72                     u2301:
  6044  0B72  2B7C               	goto	l2144
  6045  0B73                     u2300:
  6046  0B73                     l2140:
  6047  0B73  3000               	movlw	0
  6048  0B74  00F5               	movwf	?___fladd+3
  6049  0B75  3000               	movlw	0
  6050  0B76  00F4               	movwf	?___fladd+2
  6051  0B77  3000               	movlw	0
  6052  0B78  00F3               	movwf	?___fladd+1
  6053  0B79  3000               	movlw	0
  6054  0B7A  00F2               	movwf	?___fladd
  6055  0B7B  2CE7               	goto	l646
  6056  0B7C                     l2144:
  6057  0B7C  0876               	movf	___fladd@a,w
  6058  0B7D  07F2               	addwf	___fladd@b,f
  6059  0B7E  0877               	movf	___fladd@a+1,w
  6060  0B7F  1103               	clrz
  6061  0B80  1803               	skipnc
  6062  0B81  3E01               	addlw	1
  6063  0B82  1903               	skipnz
  6064  0B83  2B85               	goto	u2311
  6065  0B84  07F3               	addwf	___fladd@b+1,f
  6066  0B85                     u2311:
  6067  0B85  0878               	movf	___fladd@a+2,w
  6068  0B86  1103               	clrz
  6069  0B87  1803               	skipnc
  6070  0B88  3E01               	addlw	1
  6071  0B89  1903               	skipnz
  6072  0B8A  2B8C               	goto	u2312
  6073  0B8B  07F4               	addwf	___fladd@b+2,f
  6074  0B8C                     u2312:
  6075  0B8C  0879               	movf	___fladd@a+3,w
  6076  0B8D  1103               	clrz
  6077  0B8E  1803               	skipnc
  6078  0B8F  3E01               	addlw	1
  6079  0B90  1903               	skipnz
  6080  0B91  2B93               	goto	u2313
  6081  0B92  07F5               	addwf	___fladd@b+3,f
  6082  0B93                     u2313:
  6083  0B93                     l2146:
  6084  0B93  1C75               	btfss	___fladd@b+3,0
  6085  0B94  2B96               	goto	u2321
  6086  0B95  2B97               	goto	u2320
  6087  0B96                     u2321:
  6088  0B96  2C6D               	goto	l2196
  6089  0B97                     u2320:
  6090  0B97                     l2148:
  6091  0B97  1C2B               	btfss	___fladd@grs,0
  6092  0B98  2B9A               	goto	u2331
  6093  0B99  2B9B               	goto	u2330
  6094  0B9A                     u2331:
  6095  0B9A  2BA4               	goto	l2152
  6096  0B9B                     u2330:
  6097  0B9B                     l2150:
  6098  0B9B  082B               	movf	___fladd@grs,w
  6099  0B9C  00A0               	movwf	??___fladd
  6100  0B9D  1003               	clrc
  6101  0B9E  0C20               	rrf	??___fladd,w
  6102  0B9F  3801               	iorlw	1
  6103  0BA0  00A1               	movwf	??___fladd+1
  6104  0BA1  0821               	movf	??___fladd+1,w
  6105  0BA2  00AB               	movwf	___fladd@grs
  6106  0BA3  2BA6               	goto	l2154
  6107  0BA4                     l2152:
  6108  0BA4  1003               	clrc
  6109  0BA5  0CAB               	rrf	___fladd@grs,f
  6110  0BA6                     l2154:
  6111  0BA6  1C72               	btfss	___fladd@b,0
  6112  0BA7  2BA9               	goto	u2341
  6113  0BA8  2BAA               	goto	u2340
  6114  0BA9                     u2341:
  6115  0BA9  2BAB               	goto	l2158
  6116  0BAA                     u2340:
  6117  0BAA                     l2156:
  6118  0BAA  17AB               	bsf	___fladd@grs,7
  6119  0BAB                     l2158:
  6120  0BAB  3001               	movlw	1
  6121  0BAC  00A0               	movwf	??___fladd
  6122  0BAD                     u2355:
  6123  0BAD  0D75               	rlf	___fladd@b+3,w
  6124  0BAE  0CF5               	rrf	___fladd@b+3,f
  6125  0BAF  0CF4               	rrf	___fladd@b+2,f
  6126  0BB0  0CF3               	rrf	___fladd@b+1,f
  6127  0BB1  0CF2               	rrf	___fladd@b,f
  6128  0BB2  0BA0               	decfsz	??___fladd& (0+127),f
  6129  0BB3  2BAD               	goto	u2355
  6130  0BB4                     l2160:
  6131  0BB4  3001               	movlw	1
  6132  0BB5  00A0               	movwf	??___fladd
  6133  0BB6  0820               	movf	??___fladd,w
  6134  0BB7  07AA               	addwf	___fladd@bexp,f
  6135  0BB8  2C6D               	goto	l2196
  6136  0BB9                     l2162:
  6137  0BB9  0875               	movf	___fladd@b+3,w
  6138  0BBA  3A80               	xorlw	128
  6139  0BBB  00FF               	movwf	btemp+1
  6140  0BBC  0879               	movf	___fladd@a+3,w
  6141  0BBD  3A80               	xorlw	128
  6142  0BBE  027F               	subwf	btemp+1,w
  6143  0BBF  1D03               	skipz
  6144  0BC0  2BCB               	goto	u2363
  6145  0BC1  0878               	movf	___fladd@a+2,w
  6146  0BC2  0274               	subwf	___fladd@b+2,w
  6147  0BC3  1D03               	skipz
  6148  0BC4  2BCB               	goto	u2363
  6149  0BC5  0877               	movf	___fladd@a+1,w
  6150  0BC6  0273               	subwf	___fladd@b+1,w
  6151  0BC7  1D03               	skipz
  6152  0BC8  2BCB               	goto	u2363
  6153  0BC9  0876               	movf	___fladd@a,w
  6154  0BCA  0272               	subwf	___fladd@b,w
  6155  0BCB                     u2363:
  6156  0BCB  1803               	skipnc
  6157  0BCC  2BCE               	goto	u2361
  6158  0BCD  2BCF               	goto	u2360
  6159  0BCE                     u2361:
  6160  0BCE  2C27               	goto	l2172
  6161  0BCF                     u2360:
  6162  0BCF                     l2164:
  6163  0BCF  30FF               	movlw	255
  6164  0BD0  00A0               	movwf	??___fladd
  6165  0BD1  30FF               	movlw	255
  6166  0BD2  00A1               	movwf	??___fladd+1
  6167  0BD3  30FF               	movlw	255
  6168  0BD4  00A2               	movwf	??___fladd+2
  6169  0BD5  30FF               	movlw	255
  6170  0BD6  00A3               	movwf	??___fladd+3
  6171  0BD7  0876               	movf	___fladd@a,w
  6172  0BD8  00A4               	movwf	??___fladd+4
  6173  0BD9  0877               	movf	___fladd@a+1,w
  6174  0BDA  00A5               	movwf	??___fladd+5
  6175  0BDB  0878               	movf	___fladd@a+2,w
  6176  0BDC  00A6               	movwf	??___fladd+6
  6177  0BDD  0879               	movf	___fladd@a+3,w
  6178  0BDE  00A7               	movwf	??___fladd+7
  6179  0BDF  0872               	movf	___fladd@b,w
  6180  0BE0  02A4               	subwf	??___fladd+4,f
  6181  0BE1  0873               	movf	___fladd@b+1,w
  6182  0BE2  1C03               	skipc
  6183  0BE3  0F73               	incfsz	___fladd@b+1,w
  6184  0BE4  2BE6               	goto	u2371
  6185  0BE5  2BE7               	goto	u2372
  6186  0BE6                     u2371:
  6187  0BE6  02A5               	subwf	??___fladd+5,f
  6188  0BE7                     u2372:
  6189  0BE7  0874               	movf	___fladd@b+2,w
  6190  0BE8  1C03               	skipc
  6191  0BE9  0F74               	incfsz	___fladd@b+2,w
  6192  0BEA  2BEC               	goto	u2373
  6193  0BEB  2BED               	goto	u2374
  6194  0BEC                     u2373:
  6195  0BEC  02A6               	subwf	??___fladd+6,f
  6196  0BED                     u2374:
  6197  0BED  0875               	movf	___fladd@b+3,w
  6198  0BEE  1C03               	skipc
  6199  0BEF  0F75               	incfsz	___fladd@b+3,w
  6200  0BF0  2BF2               	goto	u2375
  6201  0BF1  2BF3               	goto	u2376
  6202  0BF2                     u2375:
  6203  0BF2  02A7               	subwf	??___fladd+7,f
  6204  0BF3                     u2376:
  6205  0BF3  0824               	movf	??___fladd+4,w
  6206  0BF4  07A0               	addwf	??___fladd,f
  6207  0BF5  0825               	movf	??___fladd+5,w
  6208  0BF6  1803               	skipnc
  6209  0BF7  0F25               	incfsz	??___fladd+5,w
  6210  0BF8  2BFA               	goto	u2380
  6211  0BF9  2BFB               	goto	u2381
  6212  0BFA                     u2380:
  6213  0BFA  07A1               	addwf	??___fladd+1,f
  6214  0BFB                     u2381:
  6215  0BFB  0826               	movf	??___fladd+6,w
  6216  0BFC  1803               	skipnc
  6217  0BFD  0F26               	incfsz	??___fladd+6,w
  6218  0BFE  2C00               	goto	u2382
  6219  0BFF  2C01               	goto	u2383
  6220  0C00                     u2382:
  6221  0C00  07A2               	addwf	??___fladd+2,f
  6222  0C01                     u2383:
  6223  0C01  0827               	movf	??___fladd+7,w
  6224  0C02  1803               	skipnc
  6225  0C03  0A27               	incf	??___fladd+7,w
  6226  0C04  07A3               	addwf	??___fladd+3,f
  6227  0C05  0823               	movf	??___fladd+3,w
  6228  0C06  00F5               	movwf	___fladd@b+3
  6229  0C07  0822               	movf	??___fladd+2,w
  6230  0C08  00F4               	movwf	___fladd@b+2
  6231  0C09  0821               	movf	??___fladd+1,w
  6232  0C0A  00F3               	movwf	___fladd@b+1
  6233  0C0B  0820               	movf	??___fladd,w
  6234  0C0C  00F2               	movwf	___fladd@b
  6235  0C0D                     l2166:
  6236  0C0D  3080               	movlw	128
  6237  0C0E  00A0               	movwf	??___fladd
  6238  0C0F  0820               	movf	??___fladd,w
  6239  0C10  06A8               	xorwf	___fladd@signs,f
  6240  0C11  09AB               	comf	___fladd@grs,f
  6241  0C12  0AAB               	incf	___fladd@grs,f
  6242  0C13                     l2168:
  6243  0C13  082B               	movf	___fladd@grs,w
  6244  0C14  1D03               	btfss	3,2
  6245  0C15  2C17               	goto	u2391
  6246  0C16  2C18               	goto	u2390
  6247  0C17                     u2391:
  6248  0C17  2C35               	goto	l654
  6249  0C18                     u2390:
  6250  0C18                     l2170:
  6251  0C18  3001               	movlw	1
  6252  0C19  07F2               	addwf	___fladd@b,f
  6253  0C1A  3000               	movlw	0
  6254  0C1B  1803               	skipnc
  6255  0C1C  3001               	movlw	1
  6256  0C1D  07F3               	addwf	___fladd@b+1,f
  6257  0C1E  3000               	movlw	0
  6258  0C1F  1803               	skipnc
  6259  0C20  3001               	movlw	1
  6260  0C21  07F4               	addwf	___fladd@b+2,f
  6261  0C22  3000               	movlw	0
  6262  0C23  1803               	skipnc
  6263  0C24  3001               	movlw	1
  6264  0C25  07F5               	addwf	___fladd@b+3,f
  6265  0C26  2C35               	goto	l654
  6266  0C27                     l2172:
  6267  0C27  0876               	movf	___fladd@a,w
  6268  0C28  02F2               	subwf	___fladd@b,f
  6269  0C29  0877               	movf	___fladd@a+1,w
  6270  0C2A  1C03               	skipc
  6271  0C2B  0F77               	incfsz	___fladd@a+1,w
  6272  0C2C  02F3               	subwf	___fladd@b+1,f
  6273  0C2D  0878               	movf	___fladd@a+2,w
  6274  0C2E  1C03               	skipc
  6275  0C2F  0F78               	incfsz	___fladd@a+2,w
  6276  0C30  02F4               	subwf	___fladd@b+2,f
  6277  0C31  0879               	movf	___fladd@a+3,w
  6278  0C32  1C03               	skipc
  6279  0C33  0F79               	incfsz	___fladd@a+3,w
  6280  0C34  02F5               	subwf	___fladd@b+3,f
  6281  0C35                     l654:
  6282  0C35  0875               	movf	___fladd@b+3,w
  6283  0C36  0474               	iorwf	___fladd@b+2,w
  6284  0C37  0473               	iorwf	___fladd@b+1,w
  6285  0C38  0472               	iorwf	___fladd@b,w
  6286  0C39  1D03               	skipz
  6287  0C3A  2C3C               	goto	u2401
  6288  0C3B  2C3D               	goto	u2400
  6289  0C3C                     u2401:
  6290  0C3C  2C69               	goto	l2194
  6291  0C3D                     u2400:
  6292  0C3D                     l2174:
  6293  0C3D  082B               	movf	___fladd@grs,w
  6294  0C3E  1D03               	btfss	3,2
  6295  0C3F  2C41               	goto	u2411
  6296  0C40  2C42               	goto	u2410
  6297  0C41                     u2411:
  6298  0C41  2C69               	goto	l2194
  6299  0C42                     u2410:
  6300  0C42                     l2176:
  6301  0C42  3000               	movlw	0
  6302  0C43  00F5               	movwf	?___fladd+3
  6303  0C44  3000               	movlw	0
  6304  0C45  00F4               	movwf	?___fladd+2
  6305  0C46  3000               	movlw	0
  6306  0C47  00F3               	movwf	?___fladd+1
  6307  0C48  3000               	movlw	0
  6308  0C49  00F2               	movwf	?___fladd
  6309  0C4A  2CE7               	goto	l646
  6310  0C4B                     l2180:
  6311  0C4B  3001               	movlw	1
  6312  0C4C  00A0               	movwf	??___fladd
  6313  0C4D                     u2425:
  6314  0C4D  1003               	clrc
  6315  0C4E  0DF2               	rlf	___fladd@b,f
  6316  0C4F  0DF3               	rlf	___fladd@b+1,f
  6317  0C50  0DF4               	rlf	___fladd@b+2,f
  6318  0C51  0DF5               	rlf	___fladd@b+3,f
  6319  0C52  0BA0               	decfsz	??___fladd,f
  6320  0C53  2C4D               	goto	u2425
  6321  0C54                     l2182:
  6322  0C54  1FAB               	btfss	___fladd@grs,7
  6323  0C55  2C57               	goto	u2431
  6324  0C56  2C58               	goto	u2430
  6325  0C57                     u2431:
  6326  0C57  2C59               	goto	l658
  6327  0C58                     u2430:
  6328  0C58                     l2184:
  6329  0C58  1472               	bsf	___fladd@b,0
  6330  0C59                     l658:
  6331  0C59  1C2B               	btfss	___fladd@grs,0
  6332  0C5A  2C5C               	goto	u2441
  6333  0C5B  2C5D               	goto	u2440
  6334  0C5C                     u2441:
  6335  0C5C  2C60               	goto	l2188
  6336  0C5D                     u2440:
  6337  0C5D                     l2186:
  6338  0C5D  1403               	setc
  6339  0C5E  0DAB               	rlf	___fladd@grs,f
  6340  0C5F  2C62               	goto	l2190
  6341  0C60                     l2188:
  6342  0C60  1003               	clrc
  6343  0C61  0DAB               	rlf	___fladd@grs,f
  6344  0C62                     l2190:
  6345  0C62  082A               	movf	___fladd@bexp,w
  6346  0C63  1903               	btfsc	3,2
  6347  0C64  2C66               	goto	u2451
  6348  0C65  2C67               	goto	u2450
  6349  0C66                     u2451:
  6350  0C66  2C69               	goto	l2194
  6351  0C67                     u2450:
  6352  0C67                     l2192:
  6353  0C67  3001               	movlw	1
  6354  0C68  02AA               	subwf	___fladd@bexp,f
  6355  0C69                     l2194:
  6356  0C69  1FF4               	btfss	___fladd@b+2,7
  6357  0C6A  2C6C               	goto	u2461
  6358  0C6B  2C6D               	goto	u2460
  6359  0C6C                     u2461:
  6360  0C6C  2C4B               	goto	l2180
  6361  0C6D                     u2460:
  6362  0C6D                     l2196:
  6363  0C6D  01A9               	clrf	___fladd@aexp
  6364  0C6E                     l2198:
  6365  0C6E  1FAB               	btfss	___fladd@grs,7
  6366  0C6F  2C71               	goto	u2471
  6367  0C70  2C72               	goto	u2470
  6368  0C71                     u2471:
  6369  0C71  2C80               	goto	l2206
  6370  0C72                     u2470:
  6371  0C72                     l2200:
  6372  0C72  082B               	movf	___fladd@grs,w
  6373  0C73  397F               	andlw	127
  6374  0C74  1903               	btfsc	3,2
  6375  0C75  2C77               	goto	u2481
  6376  0C76  2C78               	goto	u2480
  6377  0C77                     u2481:
  6378  0C77  2C7B               	goto	l664
  6379  0C78                     u2480:
  6380  0C78                     l2202:
  6381  0C78  01A9               	clrf	___fladd@aexp
  6382  0C79  0AA9               	incf	___fladd@aexp,f
  6383  0C7A  2C80               	goto	l2206
  6384  0C7B                     l664:
  6385  0C7B  1C72               	btfss	___fladd@b,0
  6386  0C7C  2C7E               	goto	u2491
  6387  0C7D  2C7F               	goto	u2490
  6388  0C7E                     u2491:
  6389  0C7E  2C80               	goto	l2206
  6390  0C7F                     u2490:
  6391  0C7F  2C78               	goto	l2202
  6392  0C80                     l2206:
  6393  0C80  0829               	movf	___fladd@aexp,w
  6394  0C81  1903               	btfsc	3,2
  6395  0C82  2C84               	goto	u2501
  6396  0C83  2C85               	goto	u2500
  6397  0C84                     u2501:
  6398  0C84  2CB9               	goto	l667
  6399  0C85                     u2500:
  6400  0C85                     l2208:
  6401  0C85  3001               	movlw	1
  6402  0C86  07F2               	addwf	___fladd@b,f
  6403  0C87  3000               	movlw	0
  6404  0C88  1803               	skipnc
  6405  0C89  3001               	movlw	1
  6406  0C8A  07F3               	addwf	___fladd@b+1,f
  6407  0C8B  3000               	movlw	0
  6408  0C8C  1803               	skipnc
  6409  0C8D  3001               	movlw	1
  6410  0C8E  07F4               	addwf	___fladd@b+2,f
  6411  0C8F  3000               	movlw	0
  6412  0C90  1803               	skipnc
  6413  0C91  3001               	movlw	1
  6414  0C92  07F5               	addwf	___fladd@b+3,f
  6415  0C93                     l2210:
  6416  0C93  1C75               	btfss	___fladd@b+3,0
  6417  0C94  2C96               	goto	u2511
  6418  0C95  2C97               	goto	u2510
  6419  0C96                     u2511:
  6420  0C96  2CB9               	goto	l667
  6421  0C97                     u2510:
  6422  0C97                     l2212:
  6423  0C97  0872               	movf	___fladd@b,w
  6424  0C98  00A0               	movwf	??___fladd
  6425  0C99  0873               	movf	___fladd@b+1,w
  6426  0C9A  00A1               	movwf	??___fladd+1
  6427  0C9B  0874               	movf	___fladd@b+2,w
  6428  0C9C  00A2               	movwf	??___fladd+2
  6429  0C9D  0875               	movf	___fladd@b+3,w
  6430  0C9E  00A3               	movwf	??___fladd+3
  6431  0C9F  3001               	movlw	1
  6432  0CA0  00A4               	movwf	??___fladd+4
  6433  0CA1                     u2525:
  6434  0CA1  0D23               	rlf	??___fladd+3,w
  6435  0CA2  0CA3               	rrf	??___fladd+3,f
  6436  0CA3  0CA2               	rrf	??___fladd+2,f
  6437  0CA4  0CA1               	rrf	??___fladd+1,f
  6438  0CA5  0CA0               	rrf	??___fladd,f
  6439  0CA6                     u2520:
  6440  0CA6  0BA4               	decfsz	??___fladd+4,f
  6441  0CA7  2CA1               	goto	u2525
  6442  0CA8  0823               	movf	??___fladd+3,w
  6443  0CA9  00F5               	movwf	___fladd@b+3
  6444  0CAA  0822               	movf	??___fladd+2,w
  6445  0CAB  00F4               	movwf	___fladd@b+2
  6446  0CAC  0821               	movf	??___fladd+1,w
  6447  0CAD  00F3               	movwf	___fladd@b+1
  6448  0CAE  0820               	movf	??___fladd,w
  6449  0CAF  00F2               	movwf	___fladd@b
  6450  0CB0  0A2A               	incf	___fladd@bexp,w
  6451  0CB1  1903               	btfsc	3,2
  6452  0CB2  2CB4               	goto	u2531
  6453  0CB3  2CB5               	goto	u2530
  6454  0CB4                     u2531:
  6455  0CB4  2CB9               	goto	l667
  6456  0CB5                     u2530:
  6457  0CB5                     l2214:
  6458  0CB5  3001               	movlw	1
  6459  0CB6  00A0               	movwf	??___fladd
  6460  0CB7  0820               	movf	??___fladd,w
  6461  0CB8  07AA               	addwf	___fladd@bexp,f
  6462  0CB9                     l667:
  6463  0CB9  0A2A               	incf	___fladd@bexp,w
  6464  0CBA  1903               	btfsc	3,2
  6465  0CBB  2CBD               	goto	u2541
  6466  0CBC  2CBE               	goto	u2540
  6467  0CBD                     u2541:
  6468  0CBD  2CC3               	goto	l2218
  6469  0CBE                     u2540:
  6470  0CBE                     l2216:
  6471  0CBE  082A               	movf	___fladd@bexp,w
  6472  0CBF  1D03               	btfss	3,2
  6473  0CC0  2CC2               	goto	u2551
  6474  0CC1  2CC3               	goto	u2550
  6475  0CC2                     u2551:
  6476  0CC2  2CD1               	goto	l2224
  6477  0CC3                     u2550:
  6478  0CC3                     l2218:
  6479  0CC3  3000               	movlw	0
  6480  0CC4  00F5               	movwf	___fladd@b+3
  6481  0CC5  3000               	movlw	0
  6482  0CC6  00F4               	movwf	___fladd@b+2
  6483  0CC7  3000               	movlw	0
  6484  0CC8  00F3               	movwf	___fladd@b+1
  6485  0CC9  3000               	movlw	0
  6486  0CCA  00F2               	movwf	___fladd@b
  6487  0CCB                     l2220:
  6488  0CCB  082A               	movf	___fladd@bexp,w
  6489  0CCC  1D03               	btfss	3,2
  6490  0CCD  2CCF               	goto	u2561
  6491  0CCE  2CD0               	goto	u2560
  6492  0CCF                     u2561:
  6493  0CCF  2CD1               	goto	l2224
  6494  0CD0                     u2560:
  6495  0CD0                     l2222:
  6496  0CD0  01A8               	clrf	___fladd@signs
  6497  0CD1                     l2224:
  6498  0CD1  1C2A               	btfss	___fladd@bexp,0
  6499  0CD2  2CD4               	goto	u2571
  6500  0CD3  2CD5               	goto	u2570
  6501  0CD4                     u2571:
  6502  0CD4  2CD7               	goto	l2228
  6503  0CD5                     u2570:
  6504  0CD5                     l2226:
  6505  0CD5  17F4               	bsf	___fladd@b+2,7
  6506  0CD6  2CDB               	goto	l675
  6507  0CD7                     l2228:
  6508  0CD7  307F               	movlw	127
  6509  0CD8  00A0               	movwf	??___fladd
  6510  0CD9  0820               	movf	??___fladd,w
  6511  0CDA  05F4               	andwf	___fladd@b+2,f
  6512  0CDB                     l675:
  6513  0CDB  082A               	movf	___fladd@bexp,w
  6514  0CDC  00A0               	movwf	??___fladd
  6515  0CDD  1003               	clrc
  6516  0CDE  0C20               	rrf	??___fladd,w
  6517  0CDF  00A1               	movwf	??___fladd+1
  6518  0CE0  0821               	movf	??___fladd+1,w
  6519  0CE1  00F5               	movwf	___fladd@b+3
  6520  0CE2                     l2230:
  6521  0CE2  1FA8               	btfss	___fladd@signs,7
  6522  0CE3  2CE5               	goto	u2581
  6523  0CE4  2CE6               	goto	u2580
  6524  0CE5                     u2581:
  6525  0CE5  2CE7               	goto	l676
  6526  0CE6                     u2580:
  6527  0CE6                     l2232:
  6528  0CE6  17F5               	bsf	___fladd@b+3,7
  6529  0CE7                     l676:
  6530  0CE7                     l646:
  6531  0CE7  0008               	return
  6532  0CE8                     __end_of___fladd:
  6533                           
  6534                           	psect	text24
  6535  0480                     __ptext24:	
  6536 ;; *************** function ___flmul *****************
  6537 ;; Defined at:
  6538 ;;		line 8 in file "C:\Program Files\Microchip\xc8\v2.32\pic\sources\c90\common\sprcmul.c"
  6539 ;; Parameters:    Size  Location     Type
  6540 ;;  b               4   49[BANK0 ] unsigned char 
  6541 ;;  a               4   53[BANK0 ] unsigned char 
  6542 ;; Auto vars:     Size  Location     Type
  6543 ;;  prod            4   69[BANK0 ] struct .
  6544 ;;  grs             4   64[BANK0 ] unsigned long 
  6545 ;;  temp            2   73[BANK0 ] struct .
  6546 ;;  bexp            1   68[BANK0 ] unsigned char 
  6547 ;;  aexp            1   63[BANK0 ] unsigned char 
  6548 ;;  sign            1   62[BANK0 ] unsigned char 
  6549 ;; Return value:  Size  Location     Type
  6550 ;;                  4   49[BANK0 ] unsigned char 
  6551 ;; Registers used:
  6552 ;;		wreg, status,2, status,0, btemp+1, pclath, cstack
  6553 ;; Tracked objects:
  6554 ;;		On entry : 0/0
  6555 ;;		On exit  : 0/0
  6556 ;;		Unchanged: 0/0
  6557 ;; Data sizes:     COMMON   BANK0   BANK1   BANK3   BANK2
  6558 ;;      Params:         0       8       0       0       0
  6559 ;;      Locals:         0      13       0       0       0
  6560 ;;      Temps:          0       5       0       0       0
  6561 ;;      Totals:         0      26       0       0       0
  6562 ;;Total ram usage:       26 bytes
  6563 ;; Hardware stack levels used: 1
  6564 ;; Hardware stack levels required when called: 2
  6565 ;; This function calls:
  6566 ;;		__Umul8_16
  6567 ;; This function is called by:
  6568 ;;		_main
  6569 ;;		_ADC_convert
  6570 ;; This function uses a non-reentrant model
  6571 ;;
  6572                           
  6573                           
  6574                           ;psect for function ___flmul
  6575  0480                     ___flmul:
  6576  0480                     l3206:	
  6577                           ;incstack = 0
  6578                           ; Regs used in ___flmul: [wreg+status,2+status,0+btemp+1+pclath+cstack]
  6579                           
  6580  0480  1283               	bcf	3,5	;RP0=0, select bank0
  6581  0481  1303               	bcf	3,6	;RP1=0, select bank0
  6582  0482  0854               	movf	___flmul@b+3,w
  6583  0483  3980               	andlw	128
  6584  0484  00D9               	movwf	??___flmul
  6585  0485  0859               	movf	??___flmul,w
  6586  0486  00DE               	movwf	___flmul@sign
  6587  0487                     l3208:
  6588  0487  0854               	movf	___flmul@b+3,w
  6589  0488  00D9               	movwf	??___flmul
  6590  0489  0759               	addwf	??___flmul,w
  6591  048A  00DA               	movwf	??___flmul+1
  6592  048B  085A               	movf	??___flmul+1,w
  6593  048C  00E4               	movwf	___flmul@bexp
  6594  048D                     l3210:
  6595  048D  1FD3               	btfss	___flmul@b+2,7
  6596  048E  2C90               	goto	u4381
  6597  048F  2C91               	goto	u4380
  6598  0490                     u4381:
  6599  0490  2C92               	goto	l3214
  6600  0491                     u4380:
  6601  0491                     l3212:
  6602  0491  1464               	bsf	___flmul@bexp,0
  6603  0492                     l3214:
  6604  0492  0864               	movf	___flmul@bexp,w
  6605  0493  1903               	btfsc	3,2
  6606  0494  2C96               	goto	u4391
  6607  0495  2C97               	goto	u4390
  6608  0496                     u4391:
  6609  0496  2CA6               	goto	l3222
  6610  0497                     u4390:
  6611  0497                     l3216:
  6612  0497  0A64               	incf	___flmul@bexp,w
  6613  0498  1D03               	btfss	3,2
  6614  0499  2C9B               	goto	u4401
  6615  049A  2C9C               	goto	u4400
  6616  049B                     u4401:
  6617  049B  2CA4               	goto	l3220
  6618  049C                     u4400:
  6619  049C                     l3218:
  6620  049C  3000               	movlw	0
  6621  049D  00D4               	movwf	___flmul@b+3
  6622  049E  3000               	movlw	0
  6623  049F  00D3               	movwf	___flmul@b+2
  6624  04A0  3000               	movlw	0
  6625  04A1  00D2               	movwf	___flmul@b+1
  6626  04A2  3000               	movlw	0
  6627  04A3  00D1               	movwf	___flmul@b
  6628  04A4                     l3220:
  6629  04A4  17D3               	bsf	___flmul@b+2,7
  6630  04A5  2CAE               	goto	l3224
  6631  04A6                     l3222:
  6632  04A6  3000               	movlw	0
  6633  04A7  00D4               	movwf	___flmul@b+3
  6634  04A8  3000               	movlw	0
  6635  04A9  00D3               	movwf	___flmul@b+2
  6636  04AA  3000               	movlw	0
  6637  04AB  00D2               	movwf	___flmul@b+1
  6638  04AC  3000               	movlw	0
  6639  04AD  00D1               	movwf	___flmul@b
  6640  04AE                     l3224:
  6641  04AE  0858               	movf	___flmul@a+3,w
  6642  04AF  3980               	andlw	128
  6643  04B0  00D9               	movwf	??___flmul
  6644  04B1  0859               	movf	??___flmul,w
  6645  04B2  06DE               	xorwf	___flmul@sign,f
  6646  04B3                     l3226:
  6647  04B3  0858               	movf	___flmul@a+3,w
  6648  04B4  00D9               	movwf	??___flmul
  6649  04B5  0759               	addwf	??___flmul,w
  6650  04B6  00DA               	movwf	??___flmul+1
  6651  04B7  085A               	movf	??___flmul+1,w
  6652  04B8  00DF               	movwf	___flmul@aexp
  6653  04B9                     l3228:
  6654  04B9  1FD7               	btfss	___flmul@a+2,7
  6655  04BA  2CBC               	goto	u4411
  6656  04BB  2CBD               	goto	u4410
  6657  04BC                     u4411:
  6658  04BC  2CBE               	goto	l3232
  6659  04BD                     u4410:
  6660  04BD                     l3230:
  6661  04BD  145F               	bsf	___flmul@aexp,0
  6662  04BE                     l3232:
  6663  04BE  085F               	movf	___flmul@aexp,w
  6664  04BF  1903               	btfsc	3,2
  6665  04C0  2CC2               	goto	u4421
  6666  04C1  2CC3               	goto	u4420
  6667  04C2                     u4421:
  6668  04C2  2CD2               	goto	l3240
  6669  04C3                     u4420:
  6670  04C3                     l3234:
  6671  04C3  0A5F               	incf	___flmul@aexp,w
  6672  04C4  1D03               	btfss	3,2
  6673  04C5  2CC7               	goto	u4431
  6674  04C6  2CC8               	goto	u4430
  6675  04C7                     u4431:
  6676  04C7  2CD0               	goto	l3238
  6677  04C8                     u4430:
  6678  04C8                     l3236:
  6679  04C8  3000               	movlw	0
  6680  04C9  00D8               	movwf	___flmul@a+3
  6681  04CA  3000               	movlw	0
  6682  04CB  00D7               	movwf	___flmul@a+2
  6683  04CC  3000               	movlw	0
  6684  04CD  00D6               	movwf	___flmul@a+1
  6685  04CE  3000               	movlw	0
  6686  04CF  00D5               	movwf	___flmul@a
  6687  04D0                     l3238:
  6688  04D0  17D7               	bsf	___flmul@a+2,7
  6689  04D1  2CDA               	goto	l3242
  6690  04D2                     l3240:
  6691  04D2  3000               	movlw	0
  6692  04D3  00D8               	movwf	___flmul@a+3
  6693  04D4  3000               	movlw	0
  6694  04D5  00D7               	movwf	___flmul@a+2
  6695  04D6  3000               	movlw	0
  6696  04D7  00D6               	movwf	___flmul@a+1
  6697  04D8  3000               	movlw	0
  6698  04D9  00D5               	movwf	___flmul@a
  6699  04DA                     l3242:
  6700  04DA  085F               	movf	___flmul@aexp,w
  6701  04DB  1903               	btfsc	3,2
  6702  04DC  2CDE               	goto	u4441
  6703  04DD  2CDF               	goto	u4440
  6704  04DE                     u4441:
  6705  04DE  2CE4               	goto	l3246
  6706  04DF                     u4440:
  6707  04DF                     l3244:
  6708  04DF  0864               	movf	___flmul@bexp,w
  6709  04E0  1D03               	btfss	3,2
  6710  04E1  2CE3               	goto	u4451
  6711  04E2  2CE4               	goto	u4450
  6712  04E3                     u4451:
  6713  04E3  2CED               	goto	l3250
  6714  04E4                     u4450:
  6715  04E4                     l3246:
  6716  04E4  3000               	movlw	0
  6717  04E5  00D4               	movwf	?___flmul+3
  6718  04E6  3000               	movlw	0
  6719  04E7  00D3               	movwf	?___flmul+2
  6720  04E8  3000               	movlw	0
  6721  04E9  00D2               	movwf	?___flmul+1
  6722  04EA  3000               	movlw	0
  6723  04EB  00D1               	movwf	?___flmul
  6724  04EC  2FE0               	goto	l729
  6725  04ED                     l3250:
  6726  04ED  0851               	movf	___flmul@b,w
  6727  04EE  00D9               	movwf	??___flmul
  6728  04EF  0859               	movf	??___flmul,w
  6729  04F0  00F2               	movwf	__Umul8_16@multiplicand
  6730  04F1  0857               	movf	___flmul@a+2,w
  6731  04F2  160A  118A  2321  120A  118A  	fcall	__Umul8_16
  6732  04F7  0873               	movf	?__Umul8_16+1,w
  6733  04F8  1283               	bcf	3,5	;RP0=0, select bank0
  6734  04F9  1303               	bcf	3,6	;RP1=0, select bank0
  6735  04FA  00EA               	movwf	___flmul@temp+1
  6736  04FB  0872               	movf	?__Umul8_16,w
  6737  04FC  00E9               	movwf	___flmul@temp
  6738  04FD                     l3252:
  6739  04FD  0869               	movf	___flmul@temp,w
  6740  04FE  00D9               	movwf	??___flmul
  6741  04FF  01DA               	clrf	??___flmul+1
  6742  0500  01DB               	clrf	??___flmul+2
  6743  0501  01DC               	clrf	??___flmul+3
  6744  0502  085C               	movf	??___flmul+3,w
  6745  0503  00E3               	movwf	___flmul@grs+3
  6746  0504  085B               	movf	??___flmul+2,w
  6747  0505  00E2               	movwf	___flmul@grs+2
  6748  0506  085A               	movf	??___flmul+1,w
  6749  0507  00E1               	movwf	___flmul@grs+1
  6750  0508  0859               	movf	??___flmul,w
  6751  0509  00E0               	movwf	___flmul@grs
  6752  050A                     l3254:
  6753  050A  086A               	movf	___flmul@temp+1,w
  6754  050B  00D9               	movwf	??___flmul
  6755  050C  01DA               	clrf	??___flmul+1
  6756  050D  01DB               	clrf	??___flmul+2
  6757  050E  01DC               	clrf	??___flmul+3
  6758  050F  085C               	movf	??___flmul+3,w
  6759  0510  00E8               	movwf	___flmul@prod+3
  6760  0511  085B               	movf	??___flmul+2,w
  6761  0512  00E7               	movwf	___flmul@prod+2
  6762  0513  085A               	movf	??___flmul+1,w
  6763  0514  00E6               	movwf	___flmul@prod+1
  6764  0515  0859               	movf	??___flmul,w
  6765  0516  00E5               	movwf	___flmul@prod
  6766  0517  0852               	movf	___flmul@b+1,w
  6767  0518  00D9               	movwf	??___flmul
  6768  0519  0859               	movf	??___flmul,w
  6769  051A  00F2               	movwf	__Umul8_16@multiplicand
  6770  051B  0856               	movf	___flmul@a+1,w
  6771  051C  160A  118A  2321  120A  118A  	fcall	__Umul8_16
  6772  0521  0873               	movf	?__Umul8_16+1,w
  6773  0522  1283               	bcf	3,5	;RP0=0, select bank0
  6774  0523  1303               	bcf	3,6	;RP1=0, select bank0
  6775  0524  00EA               	movwf	___flmul@temp+1
  6776  0525  0872               	movf	?__Umul8_16,w
  6777  0526  00E9               	movwf	___flmul@temp
  6778  0527                     l3256:
  6779  0527  0869               	movf	___flmul@temp,w
  6780  0528  00D9               	movwf	??___flmul
  6781  0529  01DA               	clrf	??___flmul+1
  6782  052A  01DB               	clrf	??___flmul+2
  6783  052B  01DC               	clrf	??___flmul+3
  6784  052C  0859               	movf	??___flmul,w
  6785  052D  07E0               	addwf	___flmul@grs,f
  6786  052E  085A               	movf	??___flmul+1,w
  6787  052F  1103               	clrz
  6788  0530  1803               	skipnc
  6789  0531  3E01               	addlw	1
  6790  0532  1903               	skipnz
  6791  0533  2D35               	goto	u4461
  6792  0534  07E1               	addwf	___flmul@grs+1,f
  6793  0535                     u4461:
  6794  0535  085B               	movf	??___flmul+2,w
  6795  0536  1103               	clrz
  6796  0537  1803               	skipnc
  6797  0538  3E01               	addlw	1
  6798  0539  1903               	skipnz
  6799  053A  2D3C               	goto	u4462
  6800  053B  07E2               	addwf	___flmul@grs+2,f
  6801  053C                     u4462:
  6802  053C  085C               	movf	??___flmul+3,w
  6803  053D  1103               	clrz
  6804  053E  1803               	skipnc
  6805  053F  3E01               	addlw	1
  6806  0540  1903               	skipnz
  6807  0541  2D43               	goto	u4463
  6808  0542  07E3               	addwf	___flmul@grs+3,f
  6809  0543                     u4463:
  6810  0543                     l3258:
  6811  0543  086A               	movf	___flmul@temp+1,w
  6812  0544  00D9               	movwf	??___flmul
  6813  0545  01DA               	clrf	??___flmul+1
  6814  0546  01DB               	clrf	??___flmul+2
  6815  0547  01DC               	clrf	??___flmul+3
  6816  0548  0859               	movf	??___flmul,w
  6817  0549  07E5               	addwf	___flmul@prod,f
  6818  054A  085A               	movf	??___flmul+1,w
  6819  054B  1103               	clrz
  6820  054C  1803               	skipnc
  6821  054D  3E01               	addlw	1
  6822  054E  1903               	skipnz
  6823  054F  2D51               	goto	u4471
  6824  0550  07E6               	addwf	___flmul@prod+1,f
  6825  0551                     u4471:
  6826  0551  085B               	movf	??___flmul+2,w
  6827  0552  1103               	clrz
  6828  0553  1803               	skipnc
  6829  0554  3E01               	addlw	1
  6830  0555  1903               	skipnz
  6831  0556  2D58               	goto	u4472
  6832  0557  07E7               	addwf	___flmul@prod+2,f
  6833  0558                     u4472:
  6834  0558  085C               	movf	??___flmul+3,w
  6835  0559  1103               	clrz
  6836  055A  1803               	skipnc
  6837  055B  3E01               	addlw	1
  6838  055C  1903               	skipnz
  6839  055D  2D5F               	goto	u4473
  6840  055E  07E8               	addwf	___flmul@prod+3,f
  6841  055F                     u4473:
  6842  055F  0853               	movf	___flmul@b+2,w
  6843  0560  00D9               	movwf	??___flmul
  6844  0561  0859               	movf	??___flmul,w
  6845  0562  00F2               	movwf	__Umul8_16@multiplicand
  6846  0563  0855               	movf	___flmul@a,w
  6847  0564  160A  118A  2321  120A  118A  	fcall	__Umul8_16
  6848  0569  0873               	movf	?__Umul8_16+1,w
  6849  056A  1283               	bcf	3,5	;RP0=0, select bank0
  6850  056B  1303               	bcf	3,6	;RP1=0, select bank0
  6851  056C  00EA               	movwf	___flmul@temp+1
  6852  056D  0872               	movf	?__Umul8_16,w
  6853  056E  00E9               	movwf	___flmul@temp
  6854  056F                     l3260:
  6855  056F  0869               	movf	___flmul@temp,w
  6856  0570  00D9               	movwf	??___flmul
  6857  0571  01DA               	clrf	??___flmul+1
  6858  0572  01DB               	clrf	??___flmul+2
  6859  0573  01DC               	clrf	??___flmul+3
  6860  0574  0859               	movf	??___flmul,w
  6861  0575  07E0               	addwf	___flmul@grs,f
  6862  0576  085A               	movf	??___flmul+1,w
  6863  0577  1103               	clrz
  6864  0578  1803               	skipnc
  6865  0579  3E01               	addlw	1
  6866  057A  1903               	skipnz
  6867  057B  2D7D               	goto	u4481
  6868  057C  07E1               	addwf	___flmul@grs+1,f
  6869  057D                     u4481:
  6870  057D  085B               	movf	??___flmul+2,w
  6871  057E  1103               	clrz
  6872  057F  1803               	skipnc
  6873  0580  3E01               	addlw	1
  6874  0581  1903               	skipnz
  6875  0582  2D84               	goto	u4482
  6876  0583  07E2               	addwf	___flmul@grs+2,f
  6877  0584                     u4482:
  6878  0584  085C               	movf	??___flmul+3,w
  6879  0585  1103               	clrz
  6880  0586  1803               	skipnc
  6881  0587  3E01               	addlw	1
  6882  0588  1903               	skipnz
  6883  0589  2D8B               	goto	u4483
  6884  058A  07E3               	addwf	___flmul@grs+3,f
  6885  058B                     u4483:
  6886  058B                     l3262:
  6887  058B  086A               	movf	___flmul@temp+1,w
  6888  058C  00D9               	movwf	??___flmul
  6889  058D  01DA               	clrf	??___flmul+1
  6890  058E  01DB               	clrf	??___flmul+2
  6891  058F  01DC               	clrf	??___flmul+3
  6892  0590  0859               	movf	??___flmul,w
  6893  0591  07E5               	addwf	___flmul@prod,f
  6894  0592  085A               	movf	??___flmul+1,w
  6895  0593  1103               	clrz
  6896  0594  1803               	skipnc
  6897  0595  3E01               	addlw	1
  6898  0596  1903               	skipnz
  6899  0597  2D99               	goto	u4491
  6900  0598  07E6               	addwf	___flmul@prod+1,f
  6901  0599                     u4491:
  6902  0599  085B               	movf	??___flmul+2,w
  6903  059A  1103               	clrz
  6904  059B  1803               	skipnc
  6905  059C  3E01               	addlw	1
  6906  059D  1903               	skipnz
  6907  059E  2DA0               	goto	u4492
  6908  059F  07E7               	addwf	___flmul@prod+2,f
  6909  05A0                     u4492:
  6910  05A0  085C               	movf	??___flmul+3,w
  6911  05A1  1103               	clrz
  6912  05A2  1803               	skipnc
  6913  05A3  3E01               	addlw	1
  6914  05A4  1903               	skipnz
  6915  05A5  2DA7               	goto	u4493
  6916  05A6  07E8               	addwf	___flmul@prod+3,f
  6917  05A7                     u4493:
  6918  05A7                     l3264:
  6919  05A7  3008               	movlw	8
  6920  05A8  00D9               	movwf	??___flmul
  6921  05A9                     u4505:
  6922  05A9  1003               	clrc
  6923  05AA  0DE0               	rlf	___flmul@grs,f
  6924  05AB  0DE1               	rlf	___flmul@grs+1,f
  6925  05AC  0DE2               	rlf	___flmul@grs+2,f
  6926  05AD  0DE3               	rlf	___flmul@grs+3,f
  6927  05AE  0BD9               	decfsz	??___flmul,f
  6928  05AF  2DA9               	goto	u4505
  6929  05B0                     l3266:
  6930  05B0  0852               	movf	___flmul@b+1,w
  6931  05B1  00D9               	movwf	??___flmul
  6932  05B2  0859               	movf	??___flmul,w
  6933  05B3  00F2               	movwf	__Umul8_16@multiplicand
  6934  05B4  0855               	movf	___flmul@a,w
  6935  05B5  160A  118A  2321  120A  118A  	fcall	__Umul8_16
  6936  05BA  0873               	movf	?__Umul8_16+1,w
  6937  05BB  1283               	bcf	3,5	;RP0=0, select bank0
  6938  05BC  1303               	bcf	3,6	;RP1=0, select bank0
  6939  05BD  00EA               	movwf	___flmul@temp+1
  6940  05BE  0872               	movf	?__Umul8_16,w
  6941  05BF  00E9               	movwf	___flmul@temp
  6942  05C0                     l3268:
  6943  05C0  0869               	movf	___flmul@temp,w
  6944  05C1  00D9               	movwf	??___flmul
  6945  05C2  086A               	movf	___flmul@temp+1,w
  6946  05C3  00DA               	movwf	??___flmul+1
  6947  05C4  01DB               	clrf	??___flmul+2
  6948  05C5  01DC               	clrf	??___flmul+3
  6949  05C6  0859               	movf	??___flmul,w
  6950  05C7  07E0               	addwf	___flmul@grs,f
  6951  05C8  085A               	movf	??___flmul+1,w
  6952  05C9  1103               	clrz
  6953  05CA  1803               	skipnc
  6954  05CB  3E01               	addlw	1
  6955  05CC  1903               	skipnz
  6956  05CD  2DCF               	goto	u4511
  6957  05CE  07E1               	addwf	___flmul@grs+1,f
  6958  05CF                     u4511:
  6959  05CF  085B               	movf	??___flmul+2,w
  6960  05D0  1103               	clrz
  6961  05D1  1803               	skipnc
  6962  05D2  3E01               	addlw	1
  6963  05D3  1903               	skipnz
  6964  05D4  2DD6               	goto	u4512
  6965  05D5  07E2               	addwf	___flmul@grs+2,f
  6966  05D6                     u4512:
  6967  05D6  085C               	movf	??___flmul+3,w
  6968  05D7  1103               	clrz
  6969  05D8  1803               	skipnc
  6970  05D9  3E01               	addlw	1
  6971  05DA  1903               	skipnz
  6972  05DB  2DDD               	goto	u4513
  6973  05DC  07E3               	addwf	___flmul@grs+3,f
  6974  05DD                     u4513:
  6975  05DD                     l3270:
  6976  05DD  0851               	movf	___flmul@b,w
  6977  05DE  00D9               	movwf	??___flmul
  6978  05DF  0859               	movf	??___flmul,w
  6979  05E0  00F2               	movwf	__Umul8_16@multiplicand
  6980  05E1  0856               	movf	___flmul@a+1,w
  6981  05E2  160A  118A  2321  120A  118A  	fcall	__Umul8_16
  6982  05E7  0873               	movf	?__Umul8_16+1,w
  6983  05E8  1283               	bcf	3,5	;RP0=0, select bank0
  6984  05E9  1303               	bcf	3,6	;RP1=0, select bank0
  6985  05EA  00EA               	movwf	___flmul@temp+1
  6986  05EB  0872               	movf	?__Umul8_16,w
  6987  05EC  00E9               	movwf	___flmul@temp
  6988  05ED                     l3272:
  6989  05ED  0869               	movf	___flmul@temp,w
  6990  05EE  00D9               	movwf	??___flmul
  6991  05EF  086A               	movf	___flmul@temp+1,w
  6992  05F0  00DA               	movwf	??___flmul+1
  6993  05F1  01DB               	clrf	??___flmul+2
  6994  05F2  01DC               	clrf	??___flmul+3
  6995  05F3  0859               	movf	??___flmul,w
  6996  05F4  07E0               	addwf	___flmul@grs,f
  6997  05F5  085A               	movf	??___flmul+1,w
  6998  05F6  1103               	clrz
  6999  05F7  1803               	skipnc
  7000  05F8  3E01               	addlw	1
  7001  05F9  1903               	skipnz
  7002  05FA  2DFC               	goto	u4521
  7003  05FB  07E1               	addwf	___flmul@grs+1,f
  7004  05FC                     u4521:
  7005  05FC  085B               	movf	??___flmul+2,w
  7006  05FD  1103               	clrz
  7007  05FE  1803               	skipnc
  7008  05FF  3E01               	addlw	1
  7009  0600  1903               	skipnz
  7010  0601  2E03               	goto	u4522
  7011  0602  07E2               	addwf	___flmul@grs+2,f
  7012  0603                     u4522:
  7013  0603  085C               	movf	??___flmul+3,w
  7014  0604  1103               	clrz
  7015  0605  1803               	skipnc
  7016  0606  3E01               	addlw	1
  7017  0607  1903               	skipnz
  7018  0608  2E0A               	goto	u4523
  7019  0609  07E3               	addwf	___flmul@grs+3,f
  7020  060A                     u4523:
  7021  060A                     l3274:
  7022  060A  3008               	movlw	8
  7023  060B  00D9               	movwf	??___flmul
  7024  060C                     u4535:
  7025  060C  1003               	clrc
  7026  060D  0DE0               	rlf	___flmul@grs,f
  7027  060E  0DE1               	rlf	___flmul@grs+1,f
  7028  060F  0DE2               	rlf	___flmul@grs+2,f
  7029  0610  0DE3               	rlf	___flmul@grs+3,f
  7030  0611  0BD9               	decfsz	??___flmul,f
  7031  0612  2E0C               	goto	u4535
  7032  0613  0851               	movf	___flmul@b,w
  7033  0614  00D9               	movwf	??___flmul
  7034  0615  0859               	movf	??___flmul,w
  7035  0616  00F2               	movwf	__Umul8_16@multiplicand
  7036  0617  0855               	movf	___flmul@a,w
  7037  0618  160A  118A  2321  120A  118A  	fcall	__Umul8_16
  7038  061D  0873               	movf	?__Umul8_16+1,w
  7039  061E  1283               	bcf	3,5	;RP0=0, select bank0
  7040  061F  1303               	bcf	3,6	;RP1=0, select bank0
  7041  0620  00EA               	movwf	___flmul@temp+1
  7042  0621  0872               	movf	?__Umul8_16,w
  7043  0622  00E9               	movwf	___flmul@temp
  7044  0623                     l3276:
  7045  0623  0869               	movf	___flmul@temp,w
  7046  0624  00D9               	movwf	??___flmul
  7047  0625  086A               	movf	___flmul@temp+1,w
  7048  0626  00DA               	movwf	??___flmul+1
  7049  0627  01DB               	clrf	??___flmul+2
  7050  0628  01DC               	clrf	??___flmul+3
  7051  0629  0859               	movf	??___flmul,w
  7052  062A  07E0               	addwf	___flmul@grs,f
  7053  062B  085A               	movf	??___flmul+1,w
  7054  062C  1103               	clrz
  7055  062D  1803               	skipnc
  7056  062E  3E01               	addlw	1
  7057  062F  1903               	skipnz
  7058  0630  2E32               	goto	u4541
  7059  0631  07E1               	addwf	___flmul@grs+1,f
  7060  0632                     u4541:
  7061  0632  085B               	movf	??___flmul+2,w
  7062  0633  1103               	clrz
  7063  0634  1803               	skipnc
  7064  0635  3E01               	addlw	1
  7065  0636  1903               	skipnz
  7066  0637  2E39               	goto	u4542
  7067  0638  07E2               	addwf	___flmul@grs+2,f
  7068  0639                     u4542:
  7069  0639  085C               	movf	??___flmul+3,w
  7070  063A  1103               	clrz
  7071  063B  1803               	skipnc
  7072  063C  3E01               	addlw	1
  7073  063D  1903               	skipnz
  7074  063E  2E40               	goto	u4543
  7075  063F  07E3               	addwf	___flmul@grs+3,f
  7076  0640                     u4543:
  7077  0640                     l3278:
  7078  0640  0852               	movf	___flmul@b+1,w
  7079  0641  00D9               	movwf	??___flmul
  7080  0642  0859               	movf	??___flmul,w
  7081  0643  00F2               	movwf	__Umul8_16@multiplicand
  7082  0644  0857               	movf	___flmul@a+2,w
  7083  0645  160A  118A  2321  120A  118A  	fcall	__Umul8_16
  7084  064A  0873               	movf	?__Umul8_16+1,w
  7085  064B  1283               	bcf	3,5	;RP0=0, select bank0
  7086  064C  1303               	bcf	3,6	;RP1=0, select bank0
  7087  064D  00EA               	movwf	___flmul@temp+1
  7088  064E  0872               	movf	?__Umul8_16,w
  7089  064F  00E9               	movwf	___flmul@temp
  7090  0650  0869               	movf	___flmul@temp,w
  7091  0651  00D9               	movwf	??___flmul
  7092  0652  086A               	movf	___flmul@temp+1,w
  7093  0653  00DA               	movwf	??___flmul+1
  7094  0654  01DB               	clrf	??___flmul+2
  7095  0655  01DC               	clrf	??___flmul+3
  7096  0656  0859               	movf	??___flmul,w
  7097  0657  07E5               	addwf	___flmul@prod,f
  7098  0658  085A               	movf	??___flmul+1,w
  7099  0659  1103               	clrz
  7100  065A  1803               	skipnc
  7101  065B  3E01               	addlw	1
  7102  065C  1903               	skipnz
  7103  065D  2E5F               	goto	u4551
  7104  065E  07E6               	addwf	___flmul@prod+1,f
  7105  065F                     u4551:
  7106  065F  085B               	movf	??___flmul+2,w
  7107  0660  1103               	clrz
  7108  0661  1803               	skipnc
  7109  0662  3E01               	addlw	1
  7110  0663  1903               	skipnz
  7111  0664  2E66               	goto	u4552
  7112  0665  07E7               	addwf	___flmul@prod+2,f
  7113  0666                     u4552:
  7114  0666  085C               	movf	??___flmul+3,w
  7115  0667  1103               	clrz
  7116  0668  1803               	skipnc
  7117  0669  3E01               	addlw	1
  7118  066A  1903               	skipnz
  7119  066B  2E6D               	goto	u4553
  7120  066C  07E8               	addwf	___flmul@prod+3,f
  7121  066D                     u4553:
  7122  066D                     l3280:
  7123  066D  0853               	movf	___flmul@b+2,w
  7124  066E  00D9               	movwf	??___flmul
  7125  066F  0859               	movf	??___flmul,w
  7126  0670  00F2               	movwf	__Umul8_16@multiplicand
  7127  0671  0856               	movf	___flmul@a+1,w
  7128  0672  160A  118A  2321  120A  118A  	fcall	__Umul8_16
  7129  0677  0873               	movf	?__Umul8_16+1,w
  7130  0678  1283               	bcf	3,5	;RP0=0, select bank0
  7131  0679  1303               	bcf	3,6	;RP1=0, select bank0
  7132  067A  00EA               	movwf	___flmul@temp+1
  7133  067B  0872               	movf	?__Umul8_16,w
  7134  067C  00E9               	movwf	___flmul@temp
  7135  067D                     l3282:
  7136  067D  0869               	movf	___flmul@temp,w
  7137  067E  00D9               	movwf	??___flmul
  7138  067F  086A               	movf	___flmul@temp+1,w
  7139  0680  00DA               	movwf	??___flmul+1
  7140  0681  01DB               	clrf	??___flmul+2
  7141  0682  01DC               	clrf	??___flmul+3
  7142  0683  0859               	movf	??___flmul,w
  7143  0684  07E5               	addwf	___flmul@prod,f
  7144  0685  085A               	movf	??___flmul+1,w
  7145  0686  1103               	clrz
  7146  0687  1803               	skipnc
  7147  0688  3E01               	addlw	1
  7148  0689  1903               	skipnz
  7149  068A  2E8C               	goto	u4561
  7150  068B  07E6               	addwf	___flmul@prod+1,f
  7151  068C                     u4561:
  7152  068C  085B               	movf	??___flmul+2,w
  7153  068D  1103               	clrz
  7154  068E  1803               	skipnc
  7155  068F  3E01               	addlw	1
  7156  0690  1903               	skipnz
  7157  0691  2E93               	goto	u4562
  7158  0692  07E7               	addwf	___flmul@prod+2,f
  7159  0693                     u4562:
  7160  0693  085C               	movf	??___flmul+3,w
  7161  0694  1103               	clrz
  7162  0695  1803               	skipnc
  7163  0696  3E01               	addlw	1
  7164  0697  1903               	skipnz
  7165  0698  2E9A               	goto	u4563
  7166  0699  07E8               	addwf	___flmul@prod+3,f
  7167  069A                     u4563:
  7168  069A  0853               	movf	___flmul@b+2,w
  7169  069B  00D9               	movwf	??___flmul
  7170  069C  0859               	movf	??___flmul,w
  7171  069D  00F2               	movwf	__Umul8_16@multiplicand
  7172  069E  0857               	movf	___flmul@a+2,w
  7173  069F  160A  118A  2321  120A  118A  	fcall	__Umul8_16
  7174  06A4  0873               	movf	?__Umul8_16+1,w
  7175  06A5  1283               	bcf	3,5	;RP0=0, select bank0
  7176  06A6  1303               	bcf	3,6	;RP1=0, select bank0
  7177  06A7  00EA               	movwf	___flmul@temp+1
  7178  06A8  0872               	movf	?__Umul8_16,w
  7179  06A9  00E9               	movwf	___flmul@temp
  7180  06AA                     l3284:
  7181  06AA  0869               	movf	___flmul@temp,w
  7182  06AB  00D9               	movwf	??___flmul
  7183  06AC  086A               	movf	___flmul@temp+1,w
  7184  06AD  00DA               	movwf	??___flmul+1
  7185  06AE  01DB               	clrf	??___flmul+2
  7186  06AF  01DC               	clrf	??___flmul+3
  7187  06B0  3008               	movlw	8
  7188  06B1                     u4575:
  7189  06B1  1003               	clrc
  7190  06B2  0DD9               	rlf	??___flmul,f
  7191  06B3  0DDA               	rlf	??___flmul+1,f
  7192  06B4  0DDB               	rlf	??___flmul+2,f
  7193  06B5  0DDC               	rlf	??___flmul+3,f
  7194  06B6                     u4570:
  7195  06B6  3EFF               	addlw	-1
  7196  06B7  1D03               	skipz
  7197  06B8  2EB1               	goto	u4575
  7198  06B9  0859               	movf	??___flmul,w
  7199  06BA  07E5               	addwf	___flmul@prod,f
  7200  06BB  085A               	movf	??___flmul+1,w
  7201  06BC  1103               	clrz
  7202  06BD  1803               	skipnc
  7203  06BE  3E01               	addlw	1
  7204  06BF  1903               	skipnz
  7205  06C0  2EC2               	goto	u4581
  7206  06C1  07E6               	addwf	___flmul@prod+1,f
  7207  06C2                     u4581:
  7208  06C2  085B               	movf	??___flmul+2,w
  7209  06C3  1103               	clrz
  7210  06C4  1803               	skipnc
  7211  06C5  3E01               	addlw	1
  7212  06C6  1903               	skipnz
  7213  06C7  2EC9               	goto	u4582
  7214  06C8  07E7               	addwf	___flmul@prod+2,f
  7215  06C9                     u4582:
  7216  06C9  085C               	movf	??___flmul+3,w
  7217  06CA  1103               	clrz
  7218  06CB  1803               	skipnc
  7219  06CC  3E01               	addlw	1
  7220  06CD  1903               	skipnz
  7221  06CE  2ED0               	goto	u4583
  7222  06CF  07E8               	addwf	___flmul@prod+3,f
  7223  06D0                     u4583:
  7224  06D0                     l3286:
  7225  06D0  0860               	movf	___flmul@grs,w
  7226  06D1  00D9               	movwf	??___flmul
  7227  06D2  0861               	movf	___flmul@grs+1,w
  7228  06D3  00DA               	movwf	??___flmul+1
  7229  06D4  0862               	movf	___flmul@grs+2,w
  7230  06D5  00DB               	movwf	??___flmul+2
  7231  06D6  0863               	movf	___flmul@grs+3,w
  7232  06D7  00DC               	movwf	??___flmul+3
  7233  06D8  3018               	movlw	24
  7234  06D9                     u4595:
  7235  06D9  1003               	clrc
  7236  06DA  0CDC               	rrf	??___flmul+3,f
  7237  06DB  0CDB               	rrf	??___flmul+2,f
  7238  06DC  0CDA               	rrf	??___flmul+1,f
  7239  06DD  0CD9               	rrf	??___flmul,f
  7240  06DE                     u4590:
  7241  06DE  3EFF               	addlw	-1
  7242  06DF  1D03               	skipz
  7243  06E0  2ED9               	goto	u4595
  7244  06E1  0859               	movf	??___flmul,w
  7245  06E2  07E5               	addwf	___flmul@prod,f
  7246  06E3  085A               	movf	??___flmul+1,w
  7247  06E4  1103               	clrz
  7248  06E5  1803               	skipnc
  7249  06E6  3E01               	addlw	1
  7250  06E7  1903               	skipnz
  7251  06E8  2EEA               	goto	u4601
  7252  06E9  07E6               	addwf	___flmul@prod+1,f
  7253  06EA                     u4601:
  7254  06EA  085B               	movf	??___flmul+2,w
  7255  06EB  1103               	clrz
  7256  06EC  1803               	skipnc
  7257  06ED  3E01               	addlw	1
  7258  06EE  1903               	skipnz
  7259  06EF  2EF1               	goto	u4602
  7260  06F0  07E7               	addwf	___flmul@prod+2,f
  7261  06F1                     u4602:
  7262  06F1  085C               	movf	??___flmul+3,w
  7263  06F2  1103               	clrz
  7264  06F3  1803               	skipnc
  7265  06F4  3E01               	addlw	1
  7266  06F5  1903               	skipnz
  7267  06F6  2EF8               	goto	u4603
  7268  06F7  07E8               	addwf	___flmul@prod+3,f
  7269  06F8                     u4603:
  7270  06F8                     l3288:
  7271  06F8  3008               	movlw	8
  7272  06F9  00D9               	movwf	??___flmul
  7273  06FA                     u4615:
  7274  06FA  1003               	clrc
  7275  06FB  0DE0               	rlf	___flmul@grs,f
  7276  06FC  0DE1               	rlf	___flmul@grs+1,f
  7277  06FD  0DE2               	rlf	___flmul@grs+2,f
  7278  06FE  0DE3               	rlf	___flmul@grs+3,f
  7279  06FF  0BD9               	decfsz	??___flmul,f
  7280  0700  2EFA               	goto	u4615
  7281  0701                     l3290:
  7282  0701  0864               	movf	___flmul@bexp,w
  7283  0702  075F               	addwf	___flmul@aexp,w
  7284  0703  00D9               	movwf	??___flmul
  7285  0704  01DA               	clrf	??___flmul+1
  7286  0705  0DDA               	rlf	??___flmul+1,f
  7287  0706  0859               	movf	??___flmul,w
  7288  0707  3E82               	addlw	130
  7289  0708  00E9               	movwf	___flmul@temp
  7290  0709  085A               	movf	??___flmul+1,w
  7291  070A  1803               	skipnc
  7292  070B  3E01               	addlw	1
  7293  070C  3EFF               	addlw	255
  7294  070D  00EA               	movwf	___flmul@temp+1
  7295  070E  2F2C               	goto	l3302
  7296  070F                     l3292:
  7297  070F  3001               	movlw	1
  7298  0710  00D9               	movwf	??___flmul
  7299  0711                     u4625:
  7300  0711  1003               	clrc
  7301  0712  0DE5               	rlf	___flmul@prod,f
  7302  0713  0DE6               	rlf	___flmul@prod+1,f
  7303  0714  0DE7               	rlf	___flmul@prod+2,f
  7304  0715  0DE8               	rlf	___flmul@prod+3,f
  7305  0716  0BD9               	decfsz	??___flmul,f
  7306  0717  2F11               	goto	u4625
  7307  0718                     l3294:
  7308  0718  1FE3               	btfss	___flmul@grs+3,7
  7309  0719  2F1B               	goto	u4631
  7310  071A  2F1C               	goto	u4630
  7311  071B                     u4631:
  7312  071B  2F1D               	goto	l3298
  7313  071C                     u4630:
  7314  071C                     l3296:
  7315  071C  1465               	bsf	___flmul@prod,0
  7316  071D                     l3298:
  7317  071D  3001               	movlw	1
  7318  071E  00D9               	movwf	??___flmul
  7319  071F                     u4645:
  7320  071F  1003               	clrc
  7321  0720  0DE0               	rlf	___flmul@grs,f
  7322  0721  0DE1               	rlf	___flmul@grs+1,f
  7323  0722  0DE2               	rlf	___flmul@grs+2,f
  7324  0723  0DE3               	rlf	___flmul@grs+3,f
  7325  0724  0BD9               	decfsz	??___flmul,f
  7326  0725  2F1F               	goto	u4645
  7327  0726                     l3300:
  7328  0726  30FF               	movlw	255
  7329  0727  07E9               	addwf	___flmul@temp,f
  7330  0728  1803               	skipnc
  7331  0729  0AEA               	incf	___flmul@temp+1,f
  7332  072A  30FF               	movlw	255
  7333  072B  07EA               	addwf	___flmul@temp+1,f
  7334  072C                     l3302:
  7335  072C  1FE7               	btfss	___flmul@prod+2,7
  7336  072D  2F2F               	goto	u4651
  7337  072E  2F30               	goto	u4650
  7338  072F                     u4651:
  7339  072F  2F0F               	goto	l3292
  7340  0730                     u4650:
  7341  0730                     l3304:
  7342  0730  01DF               	clrf	___flmul@aexp
  7343  0731                     l3306:
  7344  0731  1FE3               	btfss	___flmul@grs+3,7
  7345  0732  2F34               	goto	u4661
  7346  0733  2F35               	goto	u4660
  7347  0734                     u4661:
  7348  0734  2F51               	goto	l3314
  7349  0735                     u4660:
  7350  0735                     l3308:
  7351  0735  30FF               	movlw	255
  7352  0736  0560               	andwf	___flmul@grs,w
  7353  0737  00D9               	movwf	??___flmul
  7354  0738  30FF               	movlw	255
  7355  0739  0561               	andwf	___flmul@grs+1,w
  7356  073A  00DA               	movwf	??___flmul+1
  7357  073B  30FF               	movlw	255
  7358  073C  0562               	andwf	___flmul@grs+2,w
  7359  073D  00DB               	movwf	??___flmul+2
  7360  073E  307F               	movlw	127
  7361  073F  0563               	andwf	___flmul@grs+3,w
  7362  0740  00DC               	movwf	??___flmul+3
  7363  0741  085C               	movf	??___flmul+3,w
  7364  0742  045B               	iorwf	??___flmul+2,w
  7365  0743  045A               	iorwf	??___flmul+1,w
  7366  0744  0459               	iorwf	??___flmul,w
  7367  0745  1903               	skipnz
  7368  0746  2F48               	goto	u4671
  7369  0747  2F49               	goto	u4670
  7370  0748                     u4671:
  7371  0748  2F4C               	goto	l735
  7372  0749                     u4670:
  7373  0749                     l3310:
  7374  0749  01DF               	clrf	___flmul@aexp
  7375  074A  0ADF               	incf	___flmul@aexp,f
  7376  074B  2F51               	goto	l3314
  7377  074C                     l735:
  7378  074C  1C65               	btfss	___flmul@prod,0
  7379  074D  2F4F               	goto	u4681
  7380  074E  2F50               	goto	u4680
  7381  074F                     u4681:
  7382  074F  2F51               	goto	l3314
  7383  0750                     u4680:
  7384  0750  2F49               	goto	l3310
  7385  0751                     l3314:
  7386  0751  085F               	movf	___flmul@aexp,w
  7387  0752  1903               	btfsc	3,2
  7388  0753  2F55               	goto	u4691
  7389  0754  2F56               	goto	u4690
  7390  0755                     u4691:
  7391  0755  2F87               	goto	l3324
  7392  0756                     u4690:
  7393  0756                     l3316:
  7394  0756  3001               	movlw	1
  7395  0757  07E5               	addwf	___flmul@prod,f
  7396  0758  3000               	movlw	0
  7397  0759  1803               	skipnc
  7398  075A  3001               	movlw	1
  7399  075B  07E6               	addwf	___flmul@prod+1,f
  7400  075C  3000               	movlw	0
  7401  075D  1803               	skipnc
  7402  075E  3001               	movlw	1
  7403  075F  07E7               	addwf	___flmul@prod+2,f
  7404  0760  3000               	movlw	0
  7405  0761  1803               	skipnc
  7406  0762  3001               	movlw	1
  7407  0763  07E8               	addwf	___flmul@prod+3,f
  7408  0764                     l3318:
  7409  0764  1C68               	btfss	___flmul@prod+3,0
  7410  0765  2F67               	goto	u4701
  7411  0766  2F68               	goto	u4700
  7412  0767                     u4701:
  7413  0767  2F87               	goto	l3324
  7414  0768                     u4700:
  7415  0768                     l3320:
  7416  0768  0865               	movf	___flmul@prod,w
  7417  0769  00D9               	movwf	??___flmul
  7418  076A  0866               	movf	___flmul@prod+1,w
  7419  076B  00DA               	movwf	??___flmul+1
  7420  076C  0867               	movf	___flmul@prod+2,w
  7421  076D  00DB               	movwf	??___flmul+2
  7422  076E  0868               	movf	___flmul@prod+3,w
  7423  076F  00DC               	movwf	??___flmul+3
  7424  0770  3001               	movlw	1
  7425  0771  00DD               	movwf	??___flmul+4
  7426  0772                     u4715:
  7427  0772  0D5C               	rlf	??___flmul+3,w
  7428  0773  0CDC               	rrf	??___flmul+3,f
  7429  0774  0CDB               	rrf	??___flmul+2,f
  7430  0775  0CDA               	rrf	??___flmul+1,f
  7431  0776  0CD9               	rrf	??___flmul,f
  7432  0777                     u4710:
  7433  0777  0BDD               	decfsz	??___flmul+4,f
  7434  0778  2F72               	goto	u4715
  7435  0779  085C               	movf	??___flmul+3,w
  7436  077A  00E8               	movwf	___flmul@prod+3
  7437  077B  085B               	movf	??___flmul+2,w
  7438  077C  00E7               	movwf	___flmul@prod+2
  7439  077D  085A               	movf	??___flmul+1,w
  7440  077E  00E6               	movwf	___flmul@prod+1
  7441  077F  0859               	movf	??___flmul,w
  7442  0780  00E5               	movwf	___flmul@prod
  7443  0781                     l3322:
  7444  0781  3001               	movlw	1
  7445  0782  07E9               	addwf	___flmul@temp,f
  7446  0783  1803               	skipnc
  7447  0784  0AEA               	incf	___flmul@temp+1,f
  7448  0785  3000               	movlw	0
  7449  0786  07EA               	addwf	___flmul@temp+1,f
  7450  0787                     l3324:
  7451  0787  086A               	movf	___flmul@temp+1,w
  7452  0788  3A80               	xorlw	128
  7453  0789  00FF               	movwf	btemp+1
  7454  078A  3080               	movlw	128
  7455  078B  027F               	subwf	btemp+1,w
  7456  078C  1D03               	skipz
  7457  078D  2F90               	goto	u4725
  7458  078E  30FF               	movlw	255
  7459  078F  0269               	subwf	___flmul@temp,w
  7460  0790                     u4725:
  7461  0790  1C03               	skipc
  7462  0791  2F93               	goto	u4721
  7463  0792  2F94               	goto	u4720
  7464  0793                     u4721:
  7465  0793  2F9F               	goto	l3328
  7466  0794                     u4720:
  7467  0794                     l3326:
  7468  0794  307F               	movlw	127
  7469  0795  1283               	bcf	3,5	;RP0=0, select bank0
  7470  0796  1303               	bcf	3,6	;RP1=0, select bank0
  7471  0797  00E8               	movwf	___flmul@prod+3
  7472  0798  3080               	movlw	128
  7473  0799  00E7               	movwf	___flmul@prod+2
  7474  079A  3000               	movlw	0
  7475  079B  00E6               	movwf	___flmul@prod+1
  7476  079C  3000               	movlw	0
  7477  079D  00E5               	movwf	___flmul@prod
  7478  079E  2FD4               	goto	l741
  7479  079F                     l3328:
  7480  079F  1283               	bcf	3,5	;RP0=0, select bank0
  7481  07A0  1303               	bcf	3,6	;RP1=0, select bank0
  7482  07A1  086A               	movf	___flmul@temp+1,w
  7483  07A2  3A80               	xorlw	128
  7484  07A3  00FF               	movwf	btemp+1
  7485  07A4  3080               	movlw	128
  7486  07A5  027F               	subwf	btemp+1,w
  7487  07A6  1D03               	skipz
  7488  07A7  2FAA               	goto	u4735
  7489  07A8  3001               	movlw	1
  7490  07A9  0269               	subwf	___flmul@temp,w
  7491  07AA                     u4735:
  7492  07AA  1803               	skipnc
  7493  07AB  2FAD               	goto	u4731
  7494  07AC  2FAE               	goto	u4730
  7495  07AD                     u4731:
  7496  07AD  2FBA               	goto	l3334
  7497  07AE                     u4730:
  7498  07AE                     l3330:
  7499  07AE  3000               	movlw	0
  7500  07AF  1283               	bcf	3,5	;RP0=0, select bank0
  7501  07B0  1303               	bcf	3,6	;RP1=0, select bank0
  7502  07B1  00E8               	movwf	___flmul@prod+3
  7503  07B2  3000               	movlw	0
  7504  07B3  00E7               	movwf	___flmul@prod+2
  7505  07B4  3000               	movlw	0
  7506  07B5  00E6               	movwf	___flmul@prod+1
  7507  07B6  3000               	movlw	0
  7508  07B7  00E5               	movwf	___flmul@prod
  7509  07B8                     l3332:
  7510  07B8  01DE               	clrf	___flmul@sign
  7511  07B9  2FD4               	goto	l741
  7512  07BA                     l3334:
  7513  07BA  1283               	bcf	3,5	;RP0=0, select bank0
  7514  07BB  1303               	bcf	3,6	;RP1=0, select bank0
  7515  07BC  0869               	movf	___flmul@temp,w
  7516  07BD  00D9               	movwf	??___flmul
  7517  07BE  0859               	movf	??___flmul,w
  7518  07BF  00E4               	movwf	___flmul@bexp
  7519  07C0  30FF               	movlw	255
  7520  07C1  05E5               	andwf	___flmul@prod,f
  7521  07C2  30FF               	movlw	255
  7522  07C3  05E6               	andwf	___flmul@prod+1,f
  7523  07C4  307F               	movlw	127
  7524  07C5  05E7               	andwf	___flmul@prod+2,f
  7525  07C6  3000               	movlw	0
  7526  07C7  05E8               	andwf	___flmul@prod+3,f
  7527  07C8                     l3336:
  7528  07C8  1C64               	btfss	___flmul@bexp,0
  7529  07C9  2FCB               	goto	u4741
  7530  07CA  2FCC               	goto	u4740
  7531  07CB                     u4741:
  7532  07CB  2FCD               	goto	l3340
  7533  07CC                     u4740:
  7534  07CC                     l3338:
  7535  07CC  17E7               	bsf	___flmul@prod+2,7
  7536  07CD                     l3340:
  7537  07CD  0864               	movf	___flmul@bexp,w
  7538  07CE  00D9               	movwf	??___flmul
  7539  07CF  1003               	clrc
  7540  07D0  0C59               	rrf	??___flmul,w
  7541  07D1  00DA               	movwf	??___flmul+1
  7542  07D2  085A               	movf	??___flmul+1,w
  7543  07D3  00E8               	movwf	___flmul@prod+3
  7544  07D4                     l741:
  7545  07D4  085E               	movf	___flmul@sign,w
  7546  07D5  00D9               	movwf	??___flmul
  7547  07D6  0859               	movf	??___flmul,w
  7548  07D7  04E8               	iorwf	___flmul@prod+3,f
  7549  07D8                     l3342:
  7550  07D8  0868               	movf	___flmul@prod+3,w
  7551  07D9  00D4               	movwf	?___flmul+3
  7552  07DA  0867               	movf	___flmul@prod+2,w
  7553  07DB  00D3               	movwf	?___flmul+2
  7554  07DC  0866               	movf	___flmul@prod+1,w
  7555  07DD  00D2               	movwf	?___flmul+1
  7556  07DE  0865               	movf	___flmul@prod,w
  7557  07DF  00D1               	movwf	?___flmul
  7558  07E0                     l729:
  7559  07E0  0008               	return
  7560  07E1                     __end_of___flmul:
  7561                           
  7562                           	psect	text25
  7563  1321                     __ptext25:	
  7564 ;; *************** function __Umul8_16 *****************
  7565 ;; Defined at:
  7566 ;;		line 4 in file "C:\Program Files\Microchip\xc8\v2.32\pic\sources\c90\common\Umul8_16.c"
  7567 ;; Parameters:    Size  Location     Type
  7568 ;;  multiplier      1    wreg     unsigned char 
  7569 ;;  multiplicand    1    2[COMMON] unsigned char 
  7570 ;; Auto vars:     Size  Location     Type
  7571 ;;  multiplier      1    4[BANK0 ] unsigned char 
  7572 ;;  word_mpld       2    2[BANK0 ] unsigned int 
  7573 ;;  product         2    0[BANK0 ] unsigned int 
  7574 ;; Return value:  Size  Location     Type
  7575 ;;                  2    2[COMMON] unsigned int 
  7576 ;; Registers used:
  7577 ;;		wreg, status,2, status,0
  7578 ;; Tracked objects:
  7579 ;;		On entry : 0/0
  7580 ;;		On exit  : 0/0
  7581 ;;		Unchanged: 0/0
  7582 ;; Data sizes:     COMMON   BANK0   BANK1   BANK3   BANK2
  7583 ;;      Params:         2       0       0       0       0
  7584 ;;      Locals:         0       5       0       0       0
  7585 ;;      Temps:          2       0       0       0       0
  7586 ;;      Totals:         4       5       0       0       0
  7587 ;;Total ram usage:        9 bytes
  7588 ;; Hardware stack levels used: 1
  7589 ;; Hardware stack levels required when called: 1
  7590 ;; This function calls:
  7591 ;;		Nothing
  7592 ;; This function is called by:
  7593 ;;		___flmul
  7594 ;; This function uses a non-reentrant model
  7595 ;;
  7596                           
  7597                           
  7598                           ;psect for function __Umul8_16
  7599  1321                     __Umul8_16:
  7600                           
  7601                           ;incstack = 0
  7602                           ; Regs used in __Umul8_16: [wreg+status,2+status,0]
  7603                           ;__Umul8_16@multiplier stored from wreg
  7604  1321  1283               	bcf	3,5	;RP0=0, select bank0
  7605  1322  1303               	bcf	3,6	;RP1=0, select bank0
  7606  1323  00A4               	movwf	__Umul8_16@multiplier
  7607  1324                     l3086:
  7608  1324  01A0               	clrf	__Umul8_16@product
  7609  1325  01A1               	clrf	__Umul8_16@product+1
  7610  1326                     l3088:
  7611  1326  0872               	movf	__Umul8_16@multiplicand,w
  7612  1327  00F4               	movwf	??__Umul8_16
  7613  1328  01F5               	clrf	??__Umul8_16+1
  7614  1329  0874               	movf	??__Umul8_16,w
  7615  132A  00A2               	movwf	__Umul8_16@word_mpld
  7616  132B  0875               	movf	??__Umul8_16+1,w
  7617  132C  00A3               	movwf	__Umul8_16@word_mpld+1
  7618  132D                     l3090:
  7619  132D  1C24               	btfss	__Umul8_16@multiplier,0
  7620  132E  2B30               	goto	u4101
  7621  132F  2B31               	goto	u4100
  7622  1330                     u4101:
  7623  1330  2B37               	goto	l748
  7624  1331                     u4100:
  7625  1331                     l3092:
  7626  1331  0822               	movf	__Umul8_16@word_mpld,w
  7627  1332  07A0               	addwf	__Umul8_16@product,f
  7628  1333  1803               	skipnc
  7629  1334  0AA1               	incf	__Umul8_16@product+1,f
  7630  1335  0823               	movf	__Umul8_16@word_mpld+1,w
  7631  1336  07A1               	addwf	__Umul8_16@product+1,f
  7632  1337                     l748:
  7633  1337  3001               	movlw	1
  7634  1338                     u4115:
  7635  1338  1003               	clrc
  7636  1339  0DA2               	rlf	__Umul8_16@word_mpld,f
  7637  133A  0DA3               	rlf	__Umul8_16@word_mpld+1,f
  7638  133B  3EFF               	addlw	-1
  7639  133C  1D03               	skipz
  7640  133D  2B38               	goto	u4115
  7641  133E  1003               	clrc
  7642  133F  0CA4               	rrf	__Umul8_16@multiplier,f
  7643  1340                     l3094:
  7644  1340  0824               	movf	__Umul8_16@multiplier,w
  7645  1341  1D03               	btfss	3,2
  7646  1342  2B44               	goto	u4121
  7647  1343  2B45               	goto	u4120
  7648  1344                     u4121:
  7649  1344  2B2D               	goto	l3090
  7650  1345                     u4120:
  7651  1345                     l3096:
  7652  1345  0821               	movf	__Umul8_16@product+1,w
  7653  1346  00F3               	movwf	?__Umul8_16+1
  7654  1347  0820               	movf	__Umul8_16@product,w
  7655  1348  00F2               	movwf	?__Umul8_16
  7656  1349                     l750:
  7657  1349  0008               	return
  7658  134A                     __end_of__Umul8_16:
  7659                           
  7660                           	psect	text26
  7661  16A0                     __ptext26:	
  7662 ;; *************** function ___flge *****************
  7663 ;; Defined at:
  7664 ;;		line 4 in file "C:\Program Files\Microchip\xc8\v2.32\pic\sources\c90\common\flge.c"
  7665 ;; Parameters:    Size  Location     Type
  7666 ;;  ff1             4    2[COMMON] unsigned int 
  7667 ;;  ff2             4    6[COMMON] unsigned int 
  7668 ;; Auto vars:     Size  Location     Type
  7669 ;;		None
  7670 ;; Return value:  Size  Location     Type
  7671 ;;		None               void
  7672 ;; Registers used:
  7673 ;;		wreg, status,2, status,0
  7674 ;; Tracked objects:
  7675 ;;		On entry : 0/0
  7676 ;;		On exit  : 0/0
  7677 ;;		Unchanged: 0/0
  7678 ;; Data sizes:     COMMON   BANK0   BANK1   BANK3   BANK2
  7679 ;;      Params:         8       0       0       0       0
  7680 ;;      Locals:         0       0       0       0       0
  7681 ;;      Temps:          0       4       0       0       0
  7682 ;;      Totals:         8       4       0       0       0
  7683 ;;Total ram usage:       12 bytes
  7684 ;; Hardware stack levels used: 1
  7685 ;; Hardware stack levels required when called: 1
  7686 ;; This function calls:
  7687 ;;		Nothing
  7688 ;; This function is called by:
  7689 ;;		_ADC_convert
  7690 ;; This function uses a non-reentrant model
  7691 ;;
  7692                           
  7693                           
  7694                           ;psect for function ___flge
  7695  16A0                     ___flge:
  7696  16A0                     l2390:	
  7697                           ;incstack = 0
  7698                           ; Regs used in ___flge: [wreg+status,2+status,0]
  7699                           
  7700  16A0  3000               	movlw	0
  7701  16A1  0572               	andwf	___flge@ff1,w
  7702  16A2  1283               	bcf	3,5	;RP0=0, select bank0
  7703  16A3  1303               	bcf	3,6	;RP1=0, select bank0
  7704  16A4  00A0               	movwf	??___flge
  7705  16A5  3000               	movlw	0
  7706  16A6  0573               	andwf	___flge@ff1+1,w
  7707  16A7  00A1               	movwf	??___flge+1
  7708  16A8  3080               	movlw	128
  7709  16A9  0574               	andwf	___flge@ff1+2,w
  7710  16AA  00A2               	movwf	??___flge+2
  7711  16AB  307F               	movlw	127
  7712  16AC  0575               	andwf	___flge@ff1+3,w
  7713  16AD  00A3               	movwf	??___flge+3
  7714  16AE  0823               	movf	??___flge+3,w
  7715  16AF  0422               	iorwf	??___flge+2,w
  7716  16B0  0421               	iorwf	??___flge+1,w
  7717  16B1  0420               	iorwf	??___flge,w
  7718  16B2  1D03               	skipz
  7719  16B3  2EB5               	goto	u2891
  7720  16B4  2EB6               	goto	u2890
  7721  16B5                     u2891:
  7722  16B5  2EBE               	goto	l514
  7723  16B6                     u2890:
  7724  16B6                     l2392:
  7725  16B6  3000               	movlw	0
  7726  16B7  00F5               	movwf	___flge@ff1+3
  7727  16B8  3000               	movlw	0
  7728  16B9  00F4               	movwf	___flge@ff1+2
  7729  16BA  3000               	movlw	0
  7730  16BB  00F3               	movwf	___flge@ff1+1
  7731  16BC  3000               	movlw	0
  7732  16BD  00F2               	movwf	___flge@ff1
  7733  16BE                     l514:
  7734  16BE  3000               	movlw	0
  7735  16BF  0576               	andwf	___flge@ff2,w
  7736  16C0  00A0               	movwf	??___flge
  7737  16C1  3000               	movlw	0
  7738  16C2  0577               	andwf	___flge@ff2+1,w
  7739  16C3  00A1               	movwf	??___flge+1
  7740  16C4  3080               	movlw	128
  7741  16C5  0578               	andwf	___flge@ff2+2,w
  7742  16C6  00A2               	movwf	??___flge+2
  7743  16C7  307F               	movlw	127
  7744  16C8  0579               	andwf	___flge@ff2+3,w
  7745  16C9  00A3               	movwf	??___flge+3
  7746  16CA  0823               	movf	??___flge+3,w
  7747  16CB  0422               	iorwf	??___flge+2,w
  7748  16CC  0421               	iorwf	??___flge+1,w
  7749  16CD  0420               	iorwf	??___flge,w
  7750  16CE  1D03               	skipz
  7751  16CF  2ED1               	goto	u2901
  7752  16D0  2ED2               	goto	u2900
  7753  16D1                     u2901:
  7754  16D1  2EDA               	goto	l2396
  7755  16D2                     u2900:
  7756  16D2                     l2394:
  7757  16D2  3000               	movlw	0
  7758  16D3  00F9               	movwf	___flge@ff2+3
  7759  16D4  3000               	movlw	0
  7760  16D5  00F8               	movwf	___flge@ff2+2
  7761  16D6  3000               	movlw	0
  7762  16D7  00F7               	movwf	___flge@ff2+1
  7763  16D8  3000               	movlw	0
  7764  16D9  00F6               	movwf	___flge@ff2
  7765  16DA                     l2396:
  7766  16DA  1FF5               	btfss	___flge@ff1+3,7
  7767  16DB  2EDD               	goto	u2911
  7768  16DC  2EDE               	goto	u2910
  7769  16DD                     u2911:
  7770  16DD  2F02               	goto	l2400
  7771  16DE                     u2910:
  7772  16DE                     l2398:
  7773  16DE  3000               	movlw	0
  7774  16DF  00A0               	movwf	??___flge
  7775  16E0  3000               	movlw	0
  7776  16E1  00A1               	movwf	??___flge+1
  7777  16E2  3000               	movlw	0
  7778  16E3  00A2               	movwf	??___flge+2
  7779  16E4  3080               	movlw	128
  7780  16E5  00A3               	movwf	??___flge+3
  7781  16E6  0872               	movf	___flge@ff1,w
  7782  16E7  02A0               	subwf	??___flge,f
  7783  16E8  0873               	movf	___flge@ff1+1,w
  7784  16E9  1C03               	skipc
  7785  16EA  0F73               	incfsz	___flge@ff1+1,w
  7786  16EB  2EED               	goto	u2921
  7787  16EC  2EEE               	goto	u2922
  7788  16ED                     u2921:
  7789  16ED  02A1               	subwf	??___flge+1,f
  7790  16EE                     u2922:
  7791  16EE  0874               	movf	___flge@ff1+2,w
  7792  16EF  1C03               	skipc
  7793  16F0  0F74               	incfsz	___flge@ff1+2,w
  7794  16F1  2EF3               	goto	u2923
  7795  16F2  2EF4               	goto	u2924
  7796  16F3                     u2923:
  7797  16F3  02A2               	subwf	??___flge+2,f
  7798  16F4                     u2924:
  7799  16F4  0875               	movf	___flge@ff1+3,w
  7800  16F5  1C03               	skipc
  7801  16F6  0F75               	incfsz	___flge@ff1+3,w
  7802  16F7  2EF9               	goto	u2925
  7803  16F8  2EFA               	goto	u2926
  7804  16F9                     u2925:
  7805  16F9  02A3               	subwf	??___flge+3,f
  7806  16FA                     u2926:
  7807  16FA  0823               	movf	??___flge+3,w
  7808  16FB  00F5               	movwf	___flge@ff1+3
  7809  16FC  0822               	movf	??___flge+2,w
  7810  16FD  00F4               	movwf	___flge@ff1+2
  7811  16FE  0821               	movf	??___flge+1,w
  7812  16FF  00F3               	movwf	___flge@ff1+1
  7813  1700  0820               	movf	??___flge,w
  7814  1701  00F2               	movwf	___flge@ff1
  7815  1702                     l2400:
  7816  1702  1FF9               	btfss	___flge@ff2+3,7
  7817  1703  2F05               	goto	u2931
  7818  1704  2F06               	goto	u2930
  7819  1705                     u2931:
  7820  1705  2F2A               	goto	l517
  7821  1706                     u2930:
  7822  1706                     l2402:
  7823  1706  3000               	movlw	0
  7824  1707  00A0               	movwf	??___flge
  7825  1708  3000               	movlw	0
  7826  1709  00A1               	movwf	??___flge+1
  7827  170A  3000               	movlw	0
  7828  170B  00A2               	movwf	??___flge+2
  7829  170C  3080               	movlw	128
  7830  170D  00A3               	movwf	??___flge+3
  7831  170E  0876               	movf	___flge@ff2,w
  7832  170F  02A0               	subwf	??___flge,f
  7833  1710  0877               	movf	___flge@ff2+1,w
  7834  1711  1C03               	skipc
  7835  1712  0F77               	incfsz	___flge@ff2+1,w
  7836  1713  2F15               	goto	u2941
  7837  1714  2F16               	goto	u2942
  7838  1715                     u2941:
  7839  1715  02A1               	subwf	??___flge+1,f
  7840  1716                     u2942:
  7841  1716  0878               	movf	___flge@ff2+2,w
  7842  1717  1C03               	skipc
  7843  1718  0F78               	incfsz	___flge@ff2+2,w
  7844  1719  2F1B               	goto	u2943
  7845  171A  2F1C               	goto	u2944
  7846  171B                     u2943:
  7847  171B  02A2               	subwf	??___flge+2,f
  7848  171C                     u2944:
  7849  171C  0879               	movf	___flge@ff2+3,w
  7850  171D  1C03               	skipc
  7851  171E  0F79               	incfsz	___flge@ff2+3,w
  7852  171F  2F21               	goto	u2945
  7853  1720  2F22               	goto	u2946
  7854  1721                     u2945:
  7855  1721  02A3               	subwf	??___flge+3,f
  7856  1722                     u2946:
  7857  1722  0823               	movf	??___flge+3,w
  7858  1723  00F9               	movwf	___flge@ff2+3
  7859  1724  0822               	movf	??___flge+2,w
  7860  1725  00F8               	movwf	___flge@ff2+2
  7861  1726  0821               	movf	??___flge+1,w
  7862  1727  00F7               	movwf	___flge@ff2+1
  7863  1728  0820               	movf	??___flge,w
  7864  1729  00F6               	movwf	___flge@ff2
  7865  172A                     l517:
  7866  172A  3080               	movlw	128
  7867  172B  06F5               	xorwf	___flge@ff1+3,f
  7868  172C  3080               	movlw	128
  7869  172D  06F9               	xorwf	___flge@ff2+3,f
  7870  172E  0879               	movf	___flge@ff2+3,w
  7871  172F  0275               	subwf	___flge@ff1+3,w
  7872  1730  1D03               	skipz
  7873  1731  2F3C               	goto	u2955
  7874  1732  0878               	movf	___flge@ff2+2,w
  7875  1733  0274               	subwf	___flge@ff1+2,w
  7876  1734  1D03               	skipz
  7877  1735  2F3C               	goto	u2955
  7878  1736  0877               	movf	___flge@ff2+1,w
  7879  1737  0273               	subwf	___flge@ff1+1,w
  7880  1738  1D03               	skipz
  7881  1739  2F3C               	goto	u2955
  7882  173A  0876               	movf	___flge@ff2,w
  7883  173B  0272               	subwf	___flge@ff1,w
  7884  173C                     u2955:
  7885  173C  1803               	skipnc
  7886  173D  2F3F               	goto	u2951
  7887  173E  2F40               	goto	u2950
  7888  173F                     u2951:
  7889  173F  2F42               	goto	l2406
  7890  1740                     u2950:
  7891  1740                     l2404:
  7892  1740  1003               	clrc
  7893  1741  2F43               	goto	l518
  7894  1742                     l2406:
  7895  1742  1403               	setc
  7896  1743                     l518:
  7897  1743  0008               	return
  7898  1744                     __end_of___flge:
  7899                           
  7900                           	psect	text27
  7901  0883                     __ptext27:	
  7902 ;; *************** function ___fldiv *****************
  7903 ;; Defined at:
  7904 ;;		line 8 in file "C:\Program Files\Microchip\xc8\v2.32\pic\sources\c90\common\sprcdiv.c"
  7905 ;; Parameters:    Size  Location     Type
  7906 ;;  a               4   23[BANK0 ] unsigned int 
  7907 ;;  b               4   27[BANK0 ] unsigned int 
  7908 ;; Auto vars:     Size  Location     Type
  7909 ;;  grs             4   43[BANK0 ] unsigned long 
  7910 ;;  rem             4   36[BANK0 ] unsigned long 
  7911 ;;  new_exp         2   41[BANK0 ] int 
  7912 ;;  aexp            1   48[BANK0 ] unsigned char 
  7913 ;;  bexp            1   47[BANK0 ] unsigned char 
  7914 ;;  sign            1   40[BANK0 ] unsigned char 
  7915 ;; Return value:  Size  Location     Type
  7916 ;;                  4   23[BANK0 ] unsigned char 
  7917 ;; Registers used:
  7918 ;;		wreg, status,2, status,0, btemp+1
  7919 ;; Tracked objects:
  7920 ;;		On entry : 0/0
  7921 ;;		On exit  : 0/0
  7922 ;;		Unchanged: 0/0
  7923 ;; Data sizes:     COMMON   BANK0   BANK1   BANK3   BANK2
  7924 ;;      Params:         0       8       0       0       0
  7925 ;;      Locals:         0      13       0       0       0
  7926 ;;      Temps:          0       5       0       0       0
  7927 ;;      Totals:         0      26       0       0       0
  7928 ;;Total ram usage:       26 bytes
  7929 ;; Hardware stack levels used: 1
  7930 ;; Hardware stack levels required when called: 1
  7931 ;; This function calls:
  7932 ;;		Nothing
  7933 ;; This function is called by:
  7934 ;;		_main
  7935 ;;		_ADC_convert
  7936 ;; This function uses a non-reentrant model
  7937 ;;
  7938                           
  7939                           
  7940                           ;psect for function ___fldiv
  7941  0883                     ___fldiv:
  7942  0883                     l2452:	
  7943                           ;incstack = 0
  7944                           ; Regs used in ___fldiv: [wreg+status,2+status,0+btemp+1]
  7945                           
  7946  0883  1283               	bcf	3,5	;RP0=0, select bank0
  7947  0884  1303               	bcf	3,6	;RP1=0, select bank0
  7948  0885  083E               	movf	___fldiv@b+3,w
  7949  0886  3980               	andlw	128
  7950  0887  00BF               	movwf	??___fldiv
  7951  0888  083F               	movf	??___fldiv,w
  7952  0889  00C8               	movwf	___fldiv@sign
  7953  088A                     l2454:
  7954  088A  083E               	movf	___fldiv@b+3,w
  7955  088B  00BF               	movwf	??___fldiv
  7956  088C  073F               	addwf	??___fldiv,w
  7957  088D  00C0               	movwf	??___fldiv+1
  7958  088E  0840               	movf	??___fldiv+1,w
  7959  088F  00CF               	movwf	___fldiv@bexp
  7960  0890                     l2456:
  7961  0890  1FBD               	btfss	___fldiv@b+2,7
  7962  0891  2893               	goto	u3061
  7963  0892  2894               	goto	u3060
  7964  0893                     u3061:
  7965  0893  2895               	goto	l2460
  7966  0894                     u3060:
  7967  0894                     l2458:
  7968  0894  144F               	bsf	___fldiv@bexp,0
  7969  0895                     l2460:
  7970  0895  084F               	movf	___fldiv@bexp,w
  7971  0896  1903               	btfsc	3,2
  7972  0897  2899               	goto	u3071
  7973  0898  289A               	goto	u3070
  7974  0899                     u3071:
  7975  0899  28AA               	goto	l2470
  7976  089A                     u3070:
  7977  089A                     l2462:
  7978  089A  0A4F               	incf	___fldiv@bexp,w
  7979  089B  1D03               	btfss	3,2
  7980  089C  289E               	goto	u3081
  7981  089D  289F               	goto	u3080
  7982  089E                     u3081:
  7983  089E  28A7               	goto	l2466
  7984  089F                     u3080:
  7985  089F                     l2464:
  7986  089F  3000               	movlw	0
  7987  08A0  00BE               	movwf	___fldiv@b+3
  7988  08A1  3000               	movlw	0
  7989  08A2  00BD               	movwf	___fldiv@b+2
  7990  08A3  3000               	movlw	0
  7991  08A4  00BC               	movwf	___fldiv@b+1
  7992  08A5  3000               	movlw	0
  7993  08A6  00BB               	movwf	___fldiv@b
  7994  08A7                     l2466:
  7995  08A7  17BD               	bsf	___fldiv@b+2,7
  7996  08A8                     l2468:
  7997  08A8  01BE               	clrf	___fldiv@b+3
  7998  08A9  28B2               	goto	l2472
  7999  08AA                     l2470:
  8000  08AA  3000               	movlw	0
  8001  08AB  00BE               	movwf	___fldiv@b+3
  8002  08AC  3000               	movlw	0
  8003  08AD  00BD               	movwf	___fldiv@b+2
  8004  08AE  3000               	movlw	0
  8005  08AF  00BC               	movwf	___fldiv@b+1
  8006  08B0  3000               	movlw	0
  8007  08B1  00BB               	movwf	___fldiv@b
  8008  08B2                     l2472:
  8009  08B2  083A               	movf	___fldiv@a+3,w
  8010  08B3  3980               	andlw	128
  8011  08B4  00BF               	movwf	??___fldiv
  8012  08B5  083F               	movf	??___fldiv,w
  8013  08B6  06C8               	xorwf	___fldiv@sign,f
  8014  08B7                     l2474:
  8015  08B7  083A               	movf	___fldiv@a+3,w
  8016  08B8  00BF               	movwf	??___fldiv
  8017  08B9  073F               	addwf	??___fldiv,w
  8018  08BA  00C0               	movwf	??___fldiv+1
  8019  08BB  0840               	movf	??___fldiv+1,w
  8020  08BC  00D0               	movwf	___fldiv@aexp
  8021  08BD                     l2476:
  8022  08BD  1FB9               	btfss	___fldiv@a+2,7
  8023  08BE  28C0               	goto	u3091
  8024  08BF  28C1               	goto	u3090
  8025  08C0                     u3091:
  8026  08C0  28C2               	goto	l2480
  8027  08C1                     u3090:
  8028  08C1                     l2478:
  8029  08C1  1450               	bsf	___fldiv@aexp,0
  8030  08C2                     l2480:
  8031  08C2  0850               	movf	___fldiv@aexp,w
  8032  08C3  1903               	btfsc	3,2
  8033  08C4  28C6               	goto	u3101
  8034  08C5  28C7               	goto	u3100
  8035  08C6                     u3101:
  8036  08C6  28D7               	goto	l2490
  8037  08C7                     u3100:
  8038  08C7                     l2482:
  8039  08C7  0A50               	incf	___fldiv@aexp,w
  8040  08C8  1D03               	btfss	3,2
  8041  08C9  28CB               	goto	u3111
  8042  08CA  28CC               	goto	u3110
  8043  08CB                     u3111:
  8044  08CB  28D4               	goto	l2486
  8045  08CC                     u3110:
  8046  08CC                     l2484:
  8047  08CC  3000               	movlw	0
  8048  08CD  00BA               	movwf	___fldiv@a+3
  8049  08CE  3000               	movlw	0
  8050  08CF  00B9               	movwf	___fldiv@a+2
  8051  08D0  3000               	movlw	0
  8052  08D1  00B8               	movwf	___fldiv@a+1
  8053  08D2  3000               	movlw	0
  8054  08D3  00B7               	movwf	___fldiv@a
  8055  08D4                     l2486:
  8056  08D4  17B9               	bsf	___fldiv@a+2,7
  8057  08D5                     l2488:
  8058  08D5  01BA               	clrf	___fldiv@a+3
  8059  08D6  28DF               	goto	l689
  8060  08D7                     l2490:
  8061  08D7  3000               	movlw	0
  8062  08D8  00BA               	movwf	___fldiv@a+3
  8063  08D9  3000               	movlw	0
  8064  08DA  00B9               	movwf	___fldiv@a+2
  8065  08DB  3000               	movlw	0
  8066  08DC  00B8               	movwf	___fldiv@a+1
  8067  08DD  3000               	movlw	0
  8068  08DE  00B7               	movwf	___fldiv@a
  8069  08DF                     l689:
  8070  08DF  083A               	movf	___fldiv@a+3,w
  8071  08E0  0439               	iorwf	___fldiv@a+2,w
  8072  08E1  0438               	iorwf	___fldiv@a+1,w
  8073  08E2  0437               	iorwf	___fldiv@a,w
  8074  08E3  1D03               	skipz
  8075  08E4  28E6               	goto	u3121
  8076  08E5  28E7               	goto	u3120
  8077  08E6                     u3121:
  8078  08E6  2900               	goto	l2500
  8079  08E7                     u3120:
  8080  08E7                     l2492:
  8081  08E7  3000               	movlw	0
  8082  08E8  00BE               	movwf	___fldiv@b+3
  8083  08E9  3000               	movlw	0
  8084  08EA  00BD               	movwf	___fldiv@b+2
  8085  08EB  3000               	movlw	0
  8086  08EC  00BC               	movwf	___fldiv@b+1
  8087  08ED  3000               	movlw	0
  8088  08EE  00BB               	movwf	___fldiv@b
  8089  08EF  3080               	movlw	128
  8090  08F0  04BD               	iorwf	___fldiv@b+2,f
  8091  08F1  307F               	movlw	127
  8092  08F2  04BE               	iorwf	___fldiv@b+3,f
  8093  08F3                     l2494:
  8094  08F3  0848               	movf	___fldiv@sign,w
  8095  08F4  00BF               	movwf	??___fldiv
  8096  08F5  083F               	movf	??___fldiv,w
  8097  08F6  04BE               	iorwf	___fldiv@b+3,f
  8098  08F7                     l2496:
  8099  08F7  083E               	movf	___fldiv@b+3,w
  8100  08F8  00BA               	movwf	?___fldiv+3
  8101  08F9  083D               	movf	___fldiv@b+2,w
  8102  08FA  00B9               	movwf	?___fldiv+2
  8103  08FB  083C               	movf	___fldiv@b+1,w
  8104  08FC  00B8               	movwf	?___fldiv+1
  8105  08FD  083B               	movf	___fldiv@b,w
  8106  08FE  00B7               	movwf	?___fldiv
  8107  08FF  2A5F               	goto	l691
  8108  0900                     l2500:
  8109  0900  084F               	movf	___fldiv@bexp,w
  8110  0901  1D03               	btfss	3,2
  8111  0902  2904               	goto	u3131
  8112  0903  2905               	goto	u3130
  8113  0904                     u3131:
  8114  0904  290E               	goto	l2506
  8115  0905                     u3130:
  8116  0905                     l2502:
  8117  0905  3000               	movlw	0
  8118  0906  00BA               	movwf	?___fldiv+3
  8119  0907  3000               	movlw	0
  8120  0908  00B9               	movwf	?___fldiv+2
  8121  0909  3000               	movlw	0
  8122  090A  00B8               	movwf	?___fldiv+1
  8123  090B  3000               	movlw	0
  8124  090C  00B7               	movwf	?___fldiv
  8125  090D  2A5F               	goto	l691
  8126  090E                     l2506:
  8127  090E  084F               	movf	___fldiv@bexp,w
  8128  090F  00BF               	movwf	??___fldiv
  8129  0910  01C0               	clrf	??___fldiv+1
  8130  0911  0840               	movf	??___fldiv+1,w
  8131  0912  00C2               	movwf	??___fldiv+3
  8132  0913  0850               	movf	___fldiv@aexp,w
  8133  0914  023F               	subwf	??___fldiv,w
  8134  0915  00C1               	movwf	??___fldiv+2
  8135  0916  1C03               	skipc
  8136  0917  03C2               	decf	??___fldiv+3,f
  8137  0918  0841               	movf	??___fldiv+2,w
  8138  0919  3E7F               	addlw	127
  8139  091A  00C9               	movwf	___fldiv@new_exp
  8140  091B  0842               	movf	??___fldiv+3,w
  8141  091C  1803               	skipnc
  8142  091D  3E01               	addlw	1
  8143  091E  3E00               	addlw	0
  8144  091F  00CA               	movwf	___fldiv@new_exp+1
  8145  0920                     l2508:
  8146  0920  083E               	movf	___fldiv@b+3,w
  8147  0921  00C7               	movwf	___fldiv@rem+3
  8148  0922  083D               	movf	___fldiv@b+2,w
  8149  0923  00C6               	movwf	___fldiv@rem+2
  8150  0924  083C               	movf	___fldiv@b+1,w
  8151  0925  00C5               	movwf	___fldiv@rem+1
  8152  0926  083B               	movf	___fldiv@b,w
  8153  0927  00C4               	movwf	___fldiv@rem
  8154  0928                     l2510:
  8155  0928  3000               	movlw	0
  8156  0929  00BE               	movwf	___fldiv@b+3
  8157  092A  3000               	movlw	0
  8158  092B  00BD               	movwf	___fldiv@b+2
  8159  092C  3000               	movlw	0
  8160  092D  00BC               	movwf	___fldiv@b+1
  8161  092E  3000               	movlw	0
  8162  092F  00BB               	movwf	___fldiv@b
  8163  0930                     l2512:
  8164  0930  3000               	movlw	0
  8165  0931  00CE               	movwf	___fldiv@grs+3
  8166  0932  3000               	movlw	0
  8167  0933  00CD               	movwf	___fldiv@grs+2
  8168  0934  3000               	movlw	0
  8169  0935  00CC               	movwf	___fldiv@grs+1
  8170  0936  3000               	movlw	0
  8171  0937  00CB               	movwf	___fldiv@grs
  8172  0938                     l2514:
  8173  0938  01D0               	clrf	___fldiv@aexp
  8174  0939  2984               	goto	l2534
  8175  093A                     l2516:
  8176  093A  0850               	movf	___fldiv@aexp,w
  8177  093B  1903               	btfsc	3,2
  8178  093C  293E               	goto	u3141
  8179  093D  293F               	goto	u3140
  8180  093E                     u3141:
  8181  093E  295F               	goto	l2526
  8182  093F                     u3140:
  8183  093F                     l2518:
  8184  093F  3001               	movlw	1
  8185  0940  00BF               	movwf	??___fldiv
  8186  0941                     u3155:
  8187  0941  1003               	clrc
  8188  0942  0DC4               	rlf	___fldiv@rem,f
  8189  0943  0DC5               	rlf	___fldiv@rem+1,f
  8190  0944  0DC6               	rlf	___fldiv@rem+2,f
  8191  0945  0DC7               	rlf	___fldiv@rem+3,f
  8192  0946  0BBF               	decfsz	??___fldiv,f
  8193  0947  2941               	goto	u3155
  8194  0948  3001               	movlw	1
  8195  0949  00BF               	movwf	??___fldiv
  8196  094A                     u3165:
  8197  094A  1003               	clrc
  8198  094B  0DBB               	rlf	___fldiv@b,f
  8199  094C  0DBC               	rlf	___fldiv@b+1,f
  8200  094D  0DBD               	rlf	___fldiv@b+2,f
  8201  094E  0DBE               	rlf	___fldiv@b+3,f
  8202  094F  0BBF               	decfsz	??___fldiv,f
  8203  0950  294A               	goto	u3165
  8204  0951                     l2520:
  8205  0951  1FCE               	btfss	___fldiv@grs+3,7
  8206  0952  2954               	goto	u3171
  8207  0953  2955               	goto	u3170
  8208  0954                     u3171:
  8209  0954  2956               	goto	l2524
  8210  0955                     u3170:
  8211  0955                     l2522:
  8212  0955  143B               	bsf	___fldiv@b,0
  8213  0956                     l2524:
  8214  0956  3001               	movlw	1
  8215  0957  00BF               	movwf	??___fldiv
  8216  0958                     u3185:
  8217  0958  1003               	clrc
  8218  0959  0DCB               	rlf	___fldiv@grs,f
  8219  095A  0DCC               	rlf	___fldiv@grs+1,f
  8220  095B  0DCD               	rlf	___fldiv@grs+2,f
  8221  095C  0DCE               	rlf	___fldiv@grs+3,f
  8222  095D  0BBF               	decfsz	??___fldiv,f
  8223  095E  2958               	goto	u3185
  8224  095F                     l2526:
  8225  095F  083A               	movf	___fldiv@a+3,w
  8226  0960  0247               	subwf	___fldiv@rem+3,w
  8227  0961  1D03               	skipz
  8228  0962  296D               	goto	u3195
  8229  0963  0839               	movf	___fldiv@a+2,w
  8230  0964  0246               	subwf	___fldiv@rem+2,w
  8231  0965  1D03               	skipz
  8232  0966  296D               	goto	u3195
  8233  0967  0838               	movf	___fldiv@a+1,w
  8234  0968  0245               	subwf	___fldiv@rem+1,w
  8235  0969  1D03               	skipz
  8236  096A  296D               	goto	u3195
  8237  096B  0837               	movf	___fldiv@a,w
  8238  096C  0244               	subwf	___fldiv@rem,w
  8239  096D                     u3195:
  8240  096D  1C03               	skipc
  8241  096E  2970               	goto	u3191
  8242  096F  2971               	goto	u3190
  8243  0970                     u3191:
  8244  0970  2980               	goto	l2532
  8245  0971                     u3190:
  8246  0971                     l2528:
  8247  0971  174E               	bsf	___fldiv@grs+3,6
  8248  0972                     l2530:
  8249  0972  0837               	movf	___fldiv@a,w
  8250  0973  02C4               	subwf	___fldiv@rem,f
  8251  0974  0838               	movf	___fldiv@a+1,w
  8252  0975  1C03               	skipc
  8253  0976  0F38               	incfsz	___fldiv@a+1,w
  8254  0977  02C5               	subwf	___fldiv@rem+1,f
  8255  0978  0839               	movf	___fldiv@a+2,w
  8256  0979  1C03               	skipc
  8257  097A  0F39               	incfsz	___fldiv@a+2,w
  8258  097B  02C6               	subwf	___fldiv@rem+2,f
  8259  097C  083A               	movf	___fldiv@a+3,w
  8260  097D  1C03               	skipc
  8261  097E  0F3A               	incfsz	___fldiv@a+3,w
  8262  097F  02C7               	subwf	___fldiv@rem+3,f
  8263  0980                     l2532:
  8264  0980  3001               	movlw	1
  8265  0981  00BF               	movwf	??___fldiv
  8266  0982  083F               	movf	??___fldiv,w
  8267  0983  07D0               	addwf	___fldiv@aexp,f
  8268  0984                     l2534:
  8269  0984  301A               	movlw	26
  8270  0985  0250               	subwf	___fldiv@aexp,w
  8271  0986  1C03               	skipc
  8272  0987  2989               	goto	u3201
  8273  0988  298A               	goto	u3200
  8274  0989                     u3201:
  8275  0989  293A               	goto	l2516
  8276  098A                     u3200:
  8277  098A                     l2536:
  8278  098A  0847               	movf	___fldiv@rem+3,w
  8279  098B  0446               	iorwf	___fldiv@rem+2,w
  8280  098C  0445               	iorwf	___fldiv@rem+1,w
  8281  098D  0444               	iorwf	___fldiv@rem,w
  8282  098E  1903               	skipnz
  8283  098F  2991               	goto	u3211
  8284  0990  2992               	goto	u3210
  8285  0991                     u3211:
  8286  0991  29B1               	goto	l2550
  8287  0992                     u3210:
  8288  0992                     l2538:
  8289  0992  144B               	bsf	___fldiv@grs,0
  8290  0993  29B1               	goto	l2550
  8291  0994                     l2540:
  8292  0994  3001               	movlw	1
  8293  0995  00BF               	movwf	??___fldiv
  8294  0996                     u3225:
  8295  0996  1003               	clrc
  8296  0997  0DBB               	rlf	___fldiv@b,f
  8297  0998  0DBC               	rlf	___fldiv@b+1,f
  8298  0999  0DBD               	rlf	___fldiv@b+2,f
  8299  099A  0DBE               	rlf	___fldiv@b+3,f
  8300  099B  0BBF               	decfsz	??___fldiv,f
  8301  099C  2996               	goto	u3225
  8302  099D                     l2542:
  8303  099D  1FCE               	btfss	___fldiv@grs+3,7
  8304  099E  29A0               	goto	u3231
  8305  099F  29A1               	goto	u3230
  8306  09A0                     u3231:
  8307  09A0  29A2               	goto	l2546
  8308  09A1                     u3230:
  8309  09A1                     l2544:
  8310  09A1  143B               	bsf	___fldiv@b,0
  8311  09A2                     l2546:
  8312  09A2  3001               	movlw	1
  8313  09A3  00BF               	movwf	??___fldiv
  8314  09A4                     u3245:
  8315  09A4  1003               	clrc
  8316  09A5  0DCB               	rlf	___fldiv@grs,f
  8317  09A6  0DCC               	rlf	___fldiv@grs+1,f
  8318  09A7  0DCD               	rlf	___fldiv@grs+2,f
  8319  09A8  0DCE               	rlf	___fldiv@grs+3,f
  8320  09A9  0BBF               	decfsz	??___fldiv,f
  8321  09AA  29A4               	goto	u3245
  8322  09AB                     l2548:
  8323  09AB  30FF               	movlw	255
  8324  09AC  07C9               	addwf	___fldiv@new_exp,f
  8325  09AD  1803               	skipnc
  8326  09AE  0ACA               	incf	___fldiv@new_exp+1,f
  8327  09AF  30FF               	movlw	255
  8328  09B0  07CA               	addwf	___fldiv@new_exp+1,f
  8329  09B1                     l2550:
  8330  09B1  1FBD               	btfss	___fldiv@b+2,7
  8331  09B2  29B4               	goto	u3251
  8332  09B3  29B5               	goto	u3250
  8333  09B4                     u3251:
  8334  09B4  2994               	goto	l2540
  8335  09B5                     u3250:
  8336  09B5                     l2552:
  8337  09B5  01D0               	clrf	___fldiv@aexp
  8338  09B6                     l2554:
  8339  09B6  1FCE               	btfss	___fldiv@grs+3,7
  8340  09B7  29B9               	goto	u3261
  8341  09B8  29BA               	goto	u3260
  8342  09B9                     u3261:
  8343  09B9  29D6               	goto	l2562
  8344  09BA                     u3260:
  8345  09BA                     l2556:
  8346  09BA  30FF               	movlw	255
  8347  09BB  054B               	andwf	___fldiv@grs,w
  8348  09BC  00BF               	movwf	??___fldiv
  8349  09BD  30FF               	movlw	255
  8350  09BE  054C               	andwf	___fldiv@grs+1,w
  8351  09BF  00C0               	movwf	??___fldiv+1
  8352  09C0  30FF               	movlw	255
  8353  09C1  054D               	andwf	___fldiv@grs+2,w
  8354  09C2  00C1               	movwf	??___fldiv+2
  8355  09C3  307F               	movlw	127
  8356  09C4  054E               	andwf	___fldiv@grs+3,w
  8357  09C5  00C2               	movwf	??___fldiv+3
  8358  09C6  0842               	movf	??___fldiv+3,w
  8359  09C7  0441               	iorwf	??___fldiv+2,w
  8360  09C8  0440               	iorwf	??___fldiv+1,w
  8361  09C9  043F               	iorwf	??___fldiv,w
  8362  09CA  1903               	skipnz
  8363  09CB  29CD               	goto	u3271
  8364  09CC  29CE               	goto	u3270
  8365  09CD                     u3271:
  8366  09CD  29D1               	goto	l705
  8367  09CE                     u3270:
  8368  09CE                     l2558:
  8369  09CE  01D0               	clrf	___fldiv@aexp
  8370  09CF  0AD0               	incf	___fldiv@aexp,f
  8371  09D0  29D6               	goto	l2562
  8372  09D1                     l705:
  8373  09D1  1C3B               	btfss	___fldiv@b,0
  8374  09D2  29D4               	goto	u3281
  8375  09D3  29D5               	goto	u3280
  8376  09D4                     u3281:
  8377  09D4  29D6               	goto	l2562
  8378  09D5                     u3280:
  8379  09D5  29CE               	goto	l2558
  8380  09D6                     l2562:
  8381  09D6  0850               	movf	___fldiv@aexp,w
  8382  09D7  1903               	btfsc	3,2
  8383  09D8  29DA               	goto	u3291
  8384  09D9  29DB               	goto	u3290
  8385  09DA                     u3291:
  8386  09DA  2A0C               	goto	l2572
  8387  09DB                     u3290:
  8388  09DB                     l2564:
  8389  09DB  3001               	movlw	1
  8390  09DC  07BB               	addwf	___fldiv@b,f
  8391  09DD  3000               	movlw	0
  8392  09DE  1803               	skipnc
  8393  09DF  3001               	movlw	1
  8394  09E0  07BC               	addwf	___fldiv@b+1,f
  8395  09E1  3000               	movlw	0
  8396  09E2  1803               	skipnc
  8397  09E3  3001               	movlw	1
  8398  09E4  07BD               	addwf	___fldiv@b+2,f
  8399  09E5  3000               	movlw	0
  8400  09E6  1803               	skipnc
  8401  09E7  3001               	movlw	1
  8402  09E8  07BE               	addwf	___fldiv@b+3,f
  8403  09E9                     l2566:
  8404  09E9  1C3E               	btfss	___fldiv@b+3,0
  8405  09EA  29EC               	goto	u3301
  8406  09EB  29ED               	goto	u3300
  8407  09EC                     u3301:
  8408  09EC  2A0C               	goto	l2572
  8409  09ED                     u3300:
  8410  09ED                     l2568:
  8411  09ED  083B               	movf	___fldiv@b,w
  8412  09EE  00BF               	movwf	??___fldiv
  8413  09EF  083C               	movf	___fldiv@b+1,w
  8414  09F0  00C0               	movwf	??___fldiv+1
  8415  09F1  083D               	movf	___fldiv@b+2,w
  8416  09F2  00C1               	movwf	??___fldiv+2
  8417  09F3  083E               	movf	___fldiv@b+3,w
  8418  09F4  00C2               	movwf	??___fldiv+3
  8419  09F5  3001               	movlw	1
  8420  09F6  00C3               	movwf	??___fldiv+4
  8421  09F7                     u3315:
  8422  09F7  0D42               	rlf	??___fldiv+3,w
  8423  09F8  0CC2               	rrf	??___fldiv+3,f
  8424  09F9  0CC1               	rrf	??___fldiv+2,f
  8425  09FA  0CC0               	rrf	??___fldiv+1,f
  8426  09FB  0CBF               	rrf	??___fldiv,f
  8427  09FC                     u3310:
  8428  09FC  0BC3               	decfsz	??___fldiv+4,f
  8429  09FD  29F7               	goto	u3315
  8430  09FE  0842               	movf	??___fldiv+3,w
  8431  09FF  00BE               	movwf	___fldiv@b+3
  8432  0A00  0841               	movf	??___fldiv+2,w
  8433  0A01  00BD               	movwf	___fldiv@b+2
  8434  0A02  0840               	movf	??___fldiv+1,w
  8435  0A03  00BC               	movwf	___fldiv@b+1
  8436  0A04  083F               	movf	??___fldiv,w
  8437  0A05  00BB               	movwf	___fldiv@b
  8438  0A06                     l2570:
  8439  0A06  3001               	movlw	1
  8440  0A07  07C9               	addwf	___fldiv@new_exp,f
  8441  0A08  1803               	skipnc
  8442  0A09  0ACA               	incf	___fldiv@new_exp+1,f
  8443  0A0A  3000               	movlw	0
  8444  0A0B  07CA               	addwf	___fldiv@new_exp+1,f
  8445  0A0C                     l2572:
  8446  0A0C  084A               	movf	___fldiv@new_exp+1,w
  8447  0A0D  3A80               	xorlw	128
  8448  0A0E  00FF               	movwf	btemp+1
  8449  0A0F  3080               	movlw	128
  8450  0A10  027F               	subwf	btemp+1,w
  8451  0A11  1D03               	skipz
  8452  0A12  2A15               	goto	u3325
  8453  0A13  30FF               	movlw	255
  8454  0A14  0249               	subwf	___fldiv@new_exp,w
  8455  0A15                     u3325:
  8456  0A15  1C03               	skipc
  8457  0A16  2A18               	goto	u3321
  8458  0A17  2A19               	goto	u3320
  8459  0A18                     u3321:
  8460  0A18  2A27               	goto	l2576
  8461  0A19                     u3320:
  8462  0A19                     l2574:
  8463  0A19  30FF               	movlw	255
  8464  0A1A  1283               	bcf	3,5	;RP0=0, select bank0
  8465  0A1B  1303               	bcf	3,6	;RP1=0, select bank0
  8466  0A1C  00C9               	movwf	___fldiv@new_exp
  8467  0A1D  3000               	movlw	0
  8468  0A1E  00CA               	movwf	___fldiv@new_exp+1
  8469  0A1F  3000               	movlw	0
  8470  0A20  00BE               	movwf	___fldiv@b+3
  8471  0A21  3000               	movlw	0
  8472  0A22  00BD               	movwf	___fldiv@b+2
  8473  0A23  3000               	movlw	0
  8474  0A24  00BC               	movwf	___fldiv@b+1
  8475  0A25  3000               	movlw	0
  8476  0A26  00BB               	movwf	___fldiv@b
  8477  0A27                     l2576:
  8478  0A27  1283               	bcf	3,5	;RP0=0, select bank0
  8479  0A28  1303               	bcf	3,6	;RP1=0, select bank0
  8480  0A29  084A               	movf	___fldiv@new_exp+1,w
  8481  0A2A  3A80               	xorlw	128
  8482  0A2B  00FF               	movwf	btemp+1
  8483  0A2C  3080               	movlw	128
  8484  0A2D  027F               	subwf	btemp+1,w
  8485  0A2E  1D03               	skipz
  8486  0A2F  2A32               	goto	u3335
  8487  0A30  3001               	movlw	1
  8488  0A31  0249               	subwf	___fldiv@new_exp,w
  8489  0A32                     u3335:
  8490  0A32  1803               	skipnc
  8491  0A33  2A35               	goto	u3331
  8492  0A34  2A36               	goto	u3330
  8493  0A35                     u3331:
  8494  0A35  2A43               	goto	l711
  8495  0A36                     u3330:
  8496  0A36                     l2578:
  8497  0A36  1283               	bcf	3,5	;RP0=0, select bank0
  8498  0A37  1303               	bcf	3,6	;RP1=0, select bank0
  8499  0A38  01C9               	clrf	___fldiv@new_exp
  8500  0A39  01CA               	clrf	___fldiv@new_exp+1
  8501  0A3A                     l2580:
  8502  0A3A  3000               	movlw	0
  8503  0A3B  00BE               	movwf	___fldiv@b+3
  8504  0A3C  3000               	movlw	0
  8505  0A3D  00BD               	movwf	___fldiv@b+2
  8506  0A3E  3000               	movlw	0
  8507  0A3F  00BC               	movwf	___fldiv@b+1
  8508  0A40  3000               	movlw	0
  8509  0A41  00BB               	movwf	___fldiv@b
  8510  0A42                     l2582:
  8511  0A42  01C8               	clrf	___fldiv@sign
  8512  0A43                     l711:
  8513  0A43  1283               	bcf	3,5	;RP0=0, select bank0
  8514  0A44  1303               	bcf	3,6	;RP1=0, select bank0
  8515  0A45  0849               	movf	___fldiv@new_exp,w
  8516  0A46  00BF               	movwf	??___fldiv
  8517  0A47  083F               	movf	??___fldiv,w
  8518  0A48  00CF               	movwf	___fldiv@bexp
  8519  0A49                     l2584:
  8520  0A49  1C4F               	btfss	___fldiv@bexp,0
  8521  0A4A  2A4C               	goto	u3341
  8522  0A4B  2A4D               	goto	u3340
  8523  0A4C                     u3341:
  8524  0A4C  2A4F               	goto	l2588
  8525  0A4D                     u3340:
  8526  0A4D                     l2586:
  8527  0A4D  17BD               	bsf	___fldiv@b+2,7
  8528  0A4E  2A53               	goto	l713
  8529  0A4F                     l2588:
  8530  0A4F  307F               	movlw	127
  8531  0A50  00BF               	movwf	??___fldiv
  8532  0A51  083F               	movf	??___fldiv,w
  8533  0A52  05BD               	andwf	___fldiv@b+2,f
  8534  0A53                     l713:
  8535  0A53  084F               	movf	___fldiv@bexp,w
  8536  0A54  00BF               	movwf	??___fldiv
  8537  0A55  1003               	clrc
  8538  0A56  0C3F               	rrf	??___fldiv,w
  8539  0A57  00C0               	movwf	??___fldiv+1
  8540  0A58  0840               	movf	??___fldiv+1,w
  8541  0A59  00BE               	movwf	___fldiv@b+3
  8542  0A5A  0848               	movf	___fldiv@sign,w
  8543  0A5B  00BF               	movwf	??___fldiv
  8544  0A5C  083F               	movf	??___fldiv,w
  8545  0A5D  04BE               	iorwf	___fldiv@b+3,f
  8546  0A5E  28F7               	goto	l2496
  8547  0A5F                     l691:
  8548  0A5F  0008               	return
  8549  0A60                     __end_of___fldiv:
  8550                           
  8551                           	psect	text28
  8552  1637                     __ptext28:	
  8553 ;; *************** function ___awdiv *****************
  8554 ;; Defined at:
  8555 ;;		line 5 in file "C:\Program Files\Microchip\xc8\v2.32\pic\sources\c90\common\awdiv.c"
  8556 ;; Parameters:    Size  Location     Type
  8557 ;;  divisor         2    2[COMMON] int 
  8558 ;;  dividend        2    4[COMMON] int 
  8559 ;; Auto vars:     Size  Location     Type
  8560 ;;  quotient        2    2[BANK0 ] int 
  8561 ;;  sign            1    1[BANK0 ] unsigned char 
  8562 ;;  counter         1    0[BANK0 ] unsigned char 
  8563 ;; Return value:  Size  Location     Type
  8564 ;;                  2    2[COMMON] int 
  8565 ;; Registers used:
  8566 ;;		wreg, status,2, status,0
  8567 ;; Tracked objects:
  8568 ;;		On entry : 0/0
  8569 ;;		On exit  : 0/0
  8570 ;;		Unchanged: 0/0
  8571 ;; Data sizes:     COMMON   BANK0   BANK1   BANK3   BANK2
  8572 ;;      Params:         4       0       0       0       0
  8573 ;;      Locals:         0       4       0       0       0
  8574 ;;      Temps:          1       0       0       0       0
  8575 ;;      Totals:         5       4       0       0       0
  8576 ;;Total ram usage:        9 bytes
  8577 ;; Hardware stack levels used: 1
  8578 ;; Hardware stack levels required when called: 1
  8579 ;; This function calls:
  8580 ;;		Nothing
  8581 ;; This function is called by:
  8582 ;;		_ADC_convert
  8583 ;;		_division
  8584 ;; This function uses a non-reentrant model
  8585 ;;
  8586                           
  8587                           
  8588                           ;psect for function ___awdiv
  8589  1637                     ___awdiv:
  8590  1637                     l3126:	
  8591                           ;incstack = 0
  8592                           ; Regs used in ___awdiv: [wreg+status,2+status,0]
  8593                           
  8594  1637  1283               	bcf	3,5	;RP0=0, select bank0
  8595  1638  1303               	bcf	3,6	;RP1=0, select bank0
  8596  1639  01A1               	clrf	___awdiv@sign
  8597  163A                     l3128:
  8598  163A  1FF3               	btfss	___awdiv@divisor+1,7
  8599  163B  2E3D               	goto	u4181
  8600  163C  2E3E               	goto	u4180
  8601  163D                     u4181:
  8602  163D  2E45               	goto	l3134
  8603  163E                     u4180:
  8604  163E                     l3130:
  8605  163E  09F2               	comf	___awdiv@divisor,f
  8606  163F  09F3               	comf	___awdiv@divisor+1,f
  8607  1640  0AF2               	incf	___awdiv@divisor,f
  8608  1641  1903               	skipnz
  8609  1642  0AF3               	incf	___awdiv@divisor+1,f
  8610  1643                     l3132:
  8611  1643  01A1               	clrf	___awdiv@sign
  8612  1644  0AA1               	incf	___awdiv@sign,f
  8613  1645                     l3134:
  8614  1645  1FF5               	btfss	___awdiv@dividend+1,7
  8615  1646  2E48               	goto	u4191
  8616  1647  2E49               	goto	u4190
  8617  1648                     u4191:
  8618  1648  2E52               	goto	l3140
  8619  1649                     u4190:
  8620  1649                     l3136:
  8621  1649  09F4               	comf	___awdiv@dividend,f
  8622  164A  09F5               	comf	___awdiv@dividend+1,f
  8623  164B  0AF4               	incf	___awdiv@dividend,f
  8624  164C  1903               	skipnz
  8625  164D  0AF5               	incf	___awdiv@dividend+1,f
  8626  164E                     l3138:
  8627  164E  3001               	movlw	1
  8628  164F  00F6               	movwf	??___awdiv
  8629  1650  0876               	movf	??___awdiv,w
  8630  1651  06A1               	xorwf	___awdiv@sign,f
  8631  1652                     l3140:
  8632  1652  01A2               	clrf	___awdiv@quotient
  8633  1653  01A3               	clrf	___awdiv@quotient+1
  8634  1654                     l3142:
  8635  1654  0872               	movf	___awdiv@divisor,w
  8636  1655  0473               	iorwf	___awdiv@divisor+1,w
  8637  1656  1903               	btfsc	3,2
  8638  1657  2E59               	goto	u4201
  8639  1658  2E5A               	goto	u4200
  8640  1659                     u4201:
  8641  1659  2E91               	goto	l3162
  8642  165A                     u4200:
  8643  165A                     l3144:
  8644  165A  01A0               	clrf	___awdiv@counter
  8645  165B  0AA0               	incf	___awdiv@counter,f
  8646  165C  2E68               	goto	l3150
  8647  165D                     l3146:
  8648  165D  3001               	movlw	1
  8649  165E                     u4215:
  8650  165E  1003               	clrc
  8651  165F  0DF2               	rlf	___awdiv@divisor,f
  8652  1660  0DF3               	rlf	___awdiv@divisor+1,f
  8653  1661  3EFF               	addlw	-1
  8654  1662  1D03               	skipz
  8655  1663  2E5E               	goto	u4215
  8656  1664                     l3148:
  8657  1664  3001               	movlw	1
  8658  1665  00F6               	movwf	??___awdiv
  8659  1666  0876               	movf	??___awdiv,w
  8660  1667  07A0               	addwf	___awdiv@counter,f
  8661  1668                     l3150:
  8662  1668  1FF3               	btfss	___awdiv@divisor+1,7
  8663  1669  2E6B               	goto	u4221
  8664  166A  2E6C               	goto	u4220
  8665  166B                     u4221:
  8666  166B  2E5D               	goto	l3146
  8667  166C                     u4220:
  8668  166C                     l3152:
  8669  166C  3001               	movlw	1
  8670  166D                     u4235:
  8671  166D  1003               	clrc
  8672  166E  0DA2               	rlf	___awdiv@quotient,f
  8673  166F  0DA3               	rlf	___awdiv@quotient+1,f
  8674  1670  3EFF               	addlw	-1
  8675  1671  1D03               	skipz
  8676  1672  2E6D               	goto	u4235
  8677  1673  0873               	movf	___awdiv@divisor+1,w
  8678  1674  0275               	subwf	___awdiv@dividend+1,w
  8679  1675  1D03               	skipz
  8680  1676  2E79               	goto	u4245
  8681  1677  0872               	movf	___awdiv@divisor,w
  8682  1678  0274               	subwf	___awdiv@dividend,w
  8683  1679                     u4245:
  8684  1679  1C03               	skipc
  8685  167A  2E7C               	goto	u4241
  8686  167B  2E7D               	goto	u4240
  8687  167C                     u4241:
  8688  167C  2E84               	goto	l3158
  8689  167D                     u4240:
  8690  167D                     l3154:
  8691  167D  0872               	movf	___awdiv@divisor,w
  8692  167E  02F4               	subwf	___awdiv@dividend,f
  8693  167F  0873               	movf	___awdiv@divisor+1,w
  8694  1680  1C03               	skipc
  8695  1681  03F5               	decf	___awdiv@dividend+1,f
  8696  1682  02F5               	subwf	___awdiv@dividend+1,f
  8697  1683                     l3156:
  8698  1683  1422               	bsf	___awdiv@quotient,0
  8699  1684                     l3158:
  8700  1684  3001               	movlw	1
  8701  1685                     u4255:
  8702  1685  1003               	clrc
  8703  1686  0CF3               	rrf	___awdiv@divisor+1,f
  8704  1687  0CF2               	rrf	___awdiv@divisor,f
  8705  1688  3EFF               	addlw	-1
  8706  1689  1D03               	skipz
  8707  168A  2E85               	goto	u4255
  8708  168B                     l3160:
  8709  168B  3001               	movlw	1
  8710  168C  02A0               	subwf	___awdiv@counter,f
  8711  168D  1D03               	btfss	3,2
  8712  168E  2E90               	goto	u4261
  8713  168F  2E91               	goto	u4260
  8714  1690                     u4261:
  8715  1690  2E6C               	goto	l3152
  8716  1691                     u4260:
  8717  1691                     l3162:
  8718  1691  0821               	movf	___awdiv@sign,w
  8719  1692  1903               	btfsc	3,2
  8720  1693  2E95               	goto	u4271
  8721  1694  2E96               	goto	u4270
  8722  1695                     u4271:
  8723  1695  2E9B               	goto	l3166
  8724  1696                     u4270:
  8725  1696                     l3164:
  8726  1696  09A2               	comf	___awdiv@quotient,f
  8727  1697  09A3               	comf	___awdiv@quotient+1,f
  8728  1698  0AA2               	incf	___awdiv@quotient,f
  8729  1699  1903               	skipnz
  8730  169A  0AA3               	incf	___awdiv@quotient+1,f
  8731  169B                     l3166:
  8732  169B  0823               	movf	___awdiv@quotient+1,w
  8733  169C  00F3               	movwf	?___awdiv+1
  8734  169D  0822               	movf	___awdiv@quotient,w
  8735  169E  00F2               	movwf	?___awdiv
  8736  169F                     l493:
  8737  169F  0008               	return
  8738  16A0                     __end_of___awdiv:
  8739                           
  8740                           	psect	text29
  8741  0800                     __ptext29:	
  8742 ;; *************** function _isr *****************
  8743 ;; Defined at:
  8744 ;;		line 83 in file "lab4.c"
  8745 ;; Parameters:    Size  Location     Type
  8746 ;;		None
  8747 ;; Auto vars:     Size  Location     Type
  8748 ;;		None
  8749 ;; Return value:  Size  Location     Type
  8750 ;;                  1    wreg      void 
  8751 ;; Registers used:
  8752 ;;		None
  8753 ;; Tracked objects:
  8754 ;;		On entry : 0/0
  8755 ;;		On exit  : 0/0
  8756 ;;		Unchanged: 0/0
  8757 ;; Data sizes:     COMMON   BANK0   BANK1   BANK3   BANK2
  8758 ;;      Params:         0       0       0       0       0
  8759 ;;      Locals:         0       0       0       0       0
  8760 ;;      Temps:          2       0       0       0       0
  8761 ;;      Totals:         2       0       0       0       0
  8762 ;;Total ram usage:        2 bytes
  8763 ;; Hardware stack levels used: 1
  8764 ;; This function calls:
  8765 ;;		Nothing
  8766 ;; This function is called by:
  8767 ;;		Interrupt level 1
  8768 ;; This function uses a non-reentrant model
  8769 ;;
  8770                           
  8771                           
  8772                           ;psect for function _isr
  8773  0800                     _isr:
  8774  0800                     i1l214:
  8775  0800  0871               	movf	??_isr+1,w
  8776  0801  008A               	movwf	10
  8777  0802  0E70               	swapf	??_isr,w
  8778  0803  0083               	movwf	3
  8779  0804  0EFE               	swapf	btemp,f
  8780  0805  0E7E               	swapf	btemp,w
  8781  0806  0009               	retfie
  8782  0807                     __end_of_isr:
  8783  007E                     btemp	set	126	;btemp
  8784  007E                     wtemp0	set	126
  8785                           
  8786                           	psect	intentry
  8787  0004                     __pintentry:	
  8788                           ;incstack = 0
  8789                           ; Regs used in _isr: []
  8790                           
  8791  0004                     interrupt_function:
  8792  007E                     saved_w	set	btemp
  8793  0004  00FE               	movwf	btemp
  8794  0005  0E03               	swapf	3,w
  8795  0006  00F0               	movwf	??_isr
  8796  0007  080A               	movf	10,w
  8797  0008  00F1               	movwf	??_isr+1
  8798  0009  120A  158A  2800   	ljmp	_isr
  8799                           
  8800                           	psect	config
  8801                           
  8802                           ;Config register CONFIG1 @ 0x2007
  8803                           ;	Oscillator Selection bits
  8804                           ;	FOSC = INTRC_NOCLKOUT, INTOSCIO oscillator: I/O function on RA6/OSC2/CLKOUT pin, I/O f
      +                          unction on RA7/OSC1/CLKIN
  8805                           ;	Watchdog Timer Enable bit
  8806                           ;	WDTE = OFF, WDT disabled and can be enabled by SWDTEN bit of the WDTCON register
  8807                           ;	Power-up Timer Enable bit
  8808                           ;	PWRTE = OFF, PWRT disabled
  8809                           ;	RE3/MCLR pin function select bit
  8810                           ;	MCLRE = OFF, RE3/MCLR pin function is digital input, MCLR internally tied to VDD
  8811                           ;	Code Protection bit
  8812                           ;	CP = OFF, Program memory code protection is disabled
  8813                           ;	Data Code Protection bit
  8814                           ;	CPD = OFF, Data memory code protection is disabled
  8815                           ;	Brown Out Reset Selection bits
  8816                           ;	BOREN = OFF, BOR disabled
  8817                           ;	Internal External Switchover bit
  8818                           ;	IESO = OFF, Internal/External Switchover mode is disabled
  8819                           ;	Fail-Safe Clock Monitor Enabled bit
  8820                           ;	FCMEN = OFF, Fail-Safe Clock Monitor is disabled
  8821                           ;	Low Voltage Programming Enable bit
  8822                           ;	LVP = OFF, RB3 pin has digital I/O, HV on MCLR must be used for programming
  8823                           ;	In-Circuit Debugger Mode bit
  8824                           ;	DEBUG = 0x1, unprogrammed default
  8825  2007                     	org	8199
  8826  2007  20D4               	dw	8404
  8827                           
  8828                           ;Config register CONFIG2 @ 0x2008
  8829                           ;	Brown-out Reset Selection bit
  8830                           ;	BOR4V = BOR40V, Brown-out Reset set to 4.0V
  8831                           ;	Flash Program Memory Self Write Enable bits
  8832                           ;	WRT = OFF, Write protection off
  8833  2008                     	org	8200
  8834  2008  3FFF               	dw	16383

Data Sizes:
    Strings     13
    Constant    0
    Data        0
    BSS         53
    Persistent  0
    Stack       0

Auto Spaces:
    Space          Size  Autos    Used
    COMMON           14     10      12
    BANK0            80     77      77
    BANK1            80     29      80
    BANK3            96      0       0
    BANK2            96      0       0

Pointer List with Targets:

    ADC_convert@data	PTR unsigned char  size(1) Largest target is 10
		 -> adc1(BANK1[10]), cont(BANK1[10]), adc0(BANK1[10]), 

    Lcd_Write_String@a	PTR unsigned char  size(2) Largest target is 10
		 -> adc1(BANK1[10]), STR_5(CODE[2]), cont(BANK1[10]), STR_4(CODE[2]), 
		 -> adc0(BANK1[10]), STR_3(CODE[3]), STR_2(CODE[3]), STR_1(CODE[3]), 


Critical Paths under _main in COMMON

    _main->_division
    _I2C_Master_Init->___lldiv
    _division->___awmod
    _Lcd_Write_String->_Lcd_Write_Char
    _Lcd_Write_Char->_Lcd_Port
    _Lcd_Set_Cursor->_Lcd_Cmd
    _Lcd_Init->_Lcd_Cmd
    _Lcd_Clear->_Lcd_Cmd
    _Lcd_Cmd->_Lcd_Port
    _ADC_convert->___flge
    _ADC_convert->___wmul
    ___xxtofl->___wmul
    ___wmul->___fltol
    ___flsub->___fladd
    ___flsub->___wmul

Critical Paths under _isr in COMMON

    None.

Critical Paths under _main in BANK0

    _main->_ADC_convert
    _setup->_I2C_Master_Init
    _I2C_Master_Init->___lldiv
    _division->___awdiv
    _ADC_convert->___flmul
    ___xxtofl->___wmul
    ___wmul->___fltol
    ___flsub->___xxtofl
    ___flmul->___fldiv
    ___fldiv->___xxtofl

Critical Paths under _isr in BANK0

    None.

Critical Paths under _main in BANK1

    _main->_ADC_convert

Critical Paths under _isr in BANK1

    None.

Critical Paths under _main in BANK3

    None.

Critical Paths under _isr in BANK3

    None.

Critical Paths under _main in BANK2

    None.

Critical Paths under _isr in BANK2

    None.

Call Graph Tables:

 ---------------------------------------------------------------------------------
 (Depth) Function   	        Calls       Base Space   Used Autos Params    Refs
 ---------------------------------------------------------------------------------
 (0) _main                                                 8     8      0   27297
                                             21 BANK1      8     8      0
                        _ADC_convert
                    _I2C_Master_Read
                   _I2C_Master_Start
                    _I2C_Master_Stop
                   _I2C_Master_Write
                          _Lcd_Clear
                           _Lcd_Init
                     _Lcd_Set_Cursor
                   _Lcd_Write_String
                            ___fldiv
                            ___flmul
                            ___fltol
                           ___xxtofl
                           _division
                              _setup
 ---------------------------------------------------------------------------------
 (1) _setup                                                0     0      0     542
                    _I2C_Master_Init
 ---------------------------------------------------------------------------------
 (2) _I2C_Master_Init                                      8     4      4     542
                                              6 BANK0      8     4      4
                            ___lldiv
 ---------------------------------------------------------------------------------
 (3) ___lldiv                                             14     6      8     421
                                              2 COMMON     8     0      8
                                              0 BANK0      6     6      0
 ---------------------------------------------------------------------------------
 (1) _division                                             4     4      0    1647
                                              9 COMMON     1     1      0
                                              4 BANK0      3     3      0
                            ___awdiv
                            ___awmod
 ---------------------------------------------------------------------------------
 (2) ___awmod                                              7     3      4     600
                                              2 COMMON     7     3      4
 ---------------------------------------------------------------------------------
 (1) _Lcd_Write_String                                     7     5      2    1028
                                              7 COMMON     2     0      2
                                              0 BANK0      5     5      0
                     _Lcd_Write_Char
 ---------------------------------------------------------------------------------
 (2) _Lcd_Write_Char                                       4     4      0     178
                                              3 COMMON     4     4      0
                           _Lcd_Port
 ---------------------------------------------------------------------------------
 (1) _Lcd_Set_Cursor                                       7     6      1     988
                                              6 COMMON     3     2      1
                                              0 BANK0      4     4      0
                            _Lcd_Cmd
 ---------------------------------------------------------------------------------
 (1) _Lcd_Init                                             2     2      0     198
                                              6 COMMON     2     2      0
                            _Lcd_Cmd
                           _Lcd_Port
 ---------------------------------------------------------------------------------
 (1) _Lcd_Clear                                            0     0      0     110
                            _Lcd_Cmd
 ---------------------------------------------------------------------------------
 (2) _Lcd_Cmd                                              3     3      0     110
                                              3 COMMON     3     3      0
                           _Lcd_Port
 ---------------------------------------------------------------------------------
 (3) _Lcd_Port                                             1     1      0      88
                                              2 COMMON     1     1      0
 ---------------------------------------------------------------------------------
 (1) _I2C_Master_Write                                     2     0      2     402
                                              2 COMMON     2     0      2
                    _I2C_Master_Wait
 ---------------------------------------------------------------------------------
 (1) _I2C_Master_Stop                                      0     0      0       0
                    _I2C_Master_Wait
 ---------------------------------------------------------------------------------
 (1) _I2C_Master_Start                                     0     0      0       0
                    _I2C_Master_Wait
 ---------------------------------------------------------------------------------
 (1) _I2C_Master_Read                                      6     4      2     273
                                              2 COMMON     6     4      2
                    _I2C_Master_Wait
 ---------------------------------------------------------------------------------
 (2) _I2C_Master_Wait                                      0     0      0       0
 ---------------------------------------------------------------------------------
 (1) _ADC_convert                                         23    17      6   14612
                                             75 BANK0      2     2      0
                                              0 BANK1     21    15      6
                            ___awdiv
                            ___fldiv
                             ___flge
                            ___flmul
                            ___flsub
                            ___fltol
                             ___wmul
                           ___xxtofl
 ---------------------------------------------------------------------------------
 (1) ___xxtofl                                            14    10      4    1082
                                              9 BANK0     14    10      4
                            ___fltol (ARG)
                             ___wmul (ARG)
 ---------------------------------------------------------------------------------
 (2) ___wmul                                               6     2      4    1036
                                              8 COMMON     2     2      0
                                              5 BANK0      4     0      4
                            ___fltol (ARG)
 ---------------------------------------------------------------------------------
 (1) ___fltol                                             11     7      4    1057
                                              2 COMMON     6     2      4
                                              0 BANK0      5     5      0
 ---------------------------------------------------------------------------------
 (2) ___flsub                                              8     0      8    2637
                                             23 BANK0      8     0      8
                            ___fladd
                            ___fltol (ARG)
                             ___wmul (ARG)
                           ___xxtofl (ARG)
 ---------------------------------------------------------------------------------
 (3) ___fladd                                             20    12      8    2136
                                              2 COMMON     8     0      8
                                              0 BANK0     12    12      0
 ---------------------------------------------------------------------------------
 (1) ___flmul                                             26    18      8    3713
                                             49 BANK0     26    18      8
                          __Umul8_16
                            ___fldiv (ARG)
                            ___flsub (ARG)
                            ___fltol (ARG)
                           ___xxtofl (ARG)
 ---------------------------------------------------------------------------------
 (2) __Umul8_16                                            9     7      2     980
                                              2 COMMON     4     2      2
                                              0 BANK0      5     5      0
 ---------------------------------------------------------------------------------
 (2) ___flge                                              12     4      8     334
                                              2 COMMON     8     0      8
                                              0 BANK0      4     4      0
 ---------------------------------------------------------------------------------
 (1) ___fldiv                                             26    18      8    1577
                                             23 BANK0     26    18      8
                           ___xxtofl (ARG)
 ---------------------------------------------------------------------------------
 (2) ___awdiv                                              9     5      4     985
                                              2 COMMON     5     1      4
                                              0 BANK0      4     4      0
 ---------------------------------------------------------------------------------
 Estimated maximum stack depth 3
 ---------------------------------------------------------------------------------
 (Depth) Function   	        Calls       Base Space   Used Autos Params    Refs
 ---------------------------------------------------------------------------------
 (4) _isr                                                  2     2      0       0
                                              0 COMMON     2     2      0
 ---------------------------------------------------------------------------------
 Estimated maximum stack depth 4
 ---------------------------------------------------------------------------------

 Call Graph Graphs:

 _main (ROOT)
   _ADC_convert
     ___awdiv
     ___fldiv
       ___xxtofl (ARG)
         ___fltol (ARG)
         ___wmul (ARG)
           ___fltol (ARG)
     ___flge
     ___flmul
       __Umul8_16
       ___fldiv (ARG)
       ___flsub (ARG)
         ___fladd
         ___fltol (ARG)
         ___wmul (ARG)
         ___xxtofl (ARG)
       ___fltol (ARG)
       ___xxtofl (ARG)
     ___flsub
     ___fltol
     ___wmul
     ___xxtofl
   _I2C_Master_Read
     _I2C_Master_Wait
   _I2C_Master_Start
     _I2C_Master_Wait
   _I2C_Master_Stop
     _I2C_Master_Wait
   _I2C_Master_Write
     _I2C_Master_Wait
   _Lcd_Clear
     _Lcd_Cmd
       _Lcd_Port
   _Lcd_Init
     _Lcd_Cmd
     _Lcd_Port
   _Lcd_Set_Cursor
     _Lcd_Cmd
   _Lcd_Write_String
     _Lcd_Write_Char
       _Lcd_Port
   ___fldiv
   ___flmul
   ___fltol
   ___xxtofl
   _division
     ___awdiv
     ___awmod
   _setup
     _I2C_Master_Init
       ___lldiv

 _isr (ROOT)

 Address spaces:
Name               Size   Autos  Total    Cost      Usage
BITCOMMON            E      0       0       0        0.0%
EEDATA             100      0       0       0        0.0%
NULL                 0      0       0       0        0.0%
CODE                 0      0       0       0        0.0%
COMMON               E      A       C       1       85.7%
BITSFR0              0      0       0       1        0.0%
SFR0                 0      0       0       1        0.0%
BITSFR1              0      0       0       2        0.0%
SFR1                 0      0       0       2        0.0%
STACK                0      0       0       2        0.0%
ABS                  0      0      A9       3        0.0%
BITBANK0            50      0       0       4        0.0%
BITSFR3              0      0       0       4        0.0%
SFR3                 0      0       0       4        0.0%
BANK0               50     4D      4D       5       96.2%
BITSFR2              0      0       0       5        0.0%
SFR2                 0      0       0       5        0.0%
BITBANK1            50      0       0       6        0.0%
BANK1               50     1D      50       7      100.0%
BITBANK3            60      0       0       8        0.0%
BANK3               60      0       0       9        0.0%
BITBANK2            60      0       0      10        0.0%
BANK2               60      0       0      11        0.0%
DATA                 0      0      A9      12        0.0%


Microchip Technology PIC Macro Assembler V2.32 build 20210201212658 
Symbol Table                                                                                   Wed Aug 11 14:12:27 2021

             ___fldiv@aexp 0050               ___fldiv@bexp 004F                          pc 0002  
             ___fldiv@sign 0048                         l50 128C                         l44 13DB  
                       l53 126C                         l62 127F                         l47 1280  
                       l65 139B                         l66 139E                         l90 12C7  
                       l67 13A3                         l59 1275                         l91 12CD  
                       l92 12CE                         l93 12D4                         l95 12D5  
                       l87 12BD                         l88 12C0                         l89 12C6  
                       l98 12B3               ___awdiv@sign 0021                         fsr 0004  
      ___wmul@multiplicand 0027        __Umul8_16@word_mpld 0022                        l101 1299  
                      l110 1568                        l113 1414                        l107 14B2  
                      l119 145A                        l225 1375                        l251 047F  
                      l219 0CF7                        l340 1308                        l342 1320  
                      l254 15CE                        l514 16BE                        l506 150B  
                      l517 172A                        l533 086D                        l518 1743  
                      l526 0882                        l711 0A43                        l536 0882  
                      l376 1636                        l713 0A53                        l705 09D1  
                      l633 0AC3                        l493 169F                        l741 07D4  
                      l637 0B6A                        l750 1349                        l654 0C35  
                      l646 0CE7                        l735 074C                        l639 0B41  
                      l664 0C7B                        l729 07E0                        l658 0C59  
                      l691 0A5F                        l675 0CDB                        l667 0CB9  
                      l748 1337                        l676 0CE7                        l773 1768  
                      l679 12F9                        l775 17FF                        l689 08DF  
                      l786 17C9                        l787 17D5                        l779 17AD  
                      _GIE 005F                        _RC0 0038                        _RC1 0039  
                      _RC2 003A                        _RE0 0048                        _RC5 003D  
                      _RE1 0049                        _isr 0800                        _pot 00B3  
                      fsr0 0004                        indf 0000               ___awmod@sign 0078  
             ___flmul@aexp 005F               ___flmul@bexp 0064               ___flmul@sign 005E  
             ___flmul@temp 0069               ___flmul@prod 0065               ___fltol@exp1 0077  
                     l2010 12C4                       l2100 0AE9                       l2012 12CB  
                     l2110 0AFD                       l2102 0AED                       l2014 12D2  
                     l2006 12B5                       l2200 0C72                       l2120 0B0E  
                     l2112 0B01                       l2104 0AF1                       l2040 0A60  
                     l2008 12B9                       l2210 0C93                       l2202 0C78  
                     l2130 0B54                       l2122 0B25                       l2114 0B05  
                     l2106 0AF5                       l2050 0A77                       l2042 0A67  
                     l2220 0CCB                       l2212 0C97                       l2140 0B73  
                     l2132 0B55                       l2124 0B45                       l2116 0B09  
                     l2108 0AF9                       l2060 0A8F                       l2052 0A7C  
                     l2044 0A6D                       l3100 13A4                       l2230 0CE2  
                     l2222 0CD0                       l2214 0CB5                       l2206 0C80  
                     l2150 0B9B                       l2134 0B5E                       l2126 0B4E  
                     l2118 0B0D                       l2070 0AA5                       l2062 0A94  
                     l2054 0A84                       l2046 0A71                       l3110 13DA  
                     l3102 13A8                       l2400 1702                       l2232 0CE6  
                     l2224 0CD1                       l2216 0CBE                       l2208 0C85  
                     l2160 0BB4                       l2152 0BA4                       l2144 0B7C  
                     l2128 0B50                       l2136 0B62                       l2080 0AB9  
                     l2072 0AA6                       l2064 0A9A                       l2056 0A85  
                     l2048 0A72                       l3200 0862                       l3120 1316  
                     l3112 12FA                       l3104 13AB                       l3130 163E  
                     l2402 1706                       l3210 048D                       l2226 0CD5  
                     l2218 0CC3                       l2170 0C18                       l2154 0BA6  
                     l2146 0B93                       l2138 0B6E                       l2162 0BB9  
                     l2090 0AD5                       l2074 0AAB                       l2082 0ABB  
                     l2066 0A9B                       l2058 0A87                       l3202 0872  
                     l3122 131C                       l3114 12FC                       l3106 13D8  
                     l3140 1652                       l3132 1643                       l2500 0900  
                     l2404 1740                       l3300 0726                       l3220 04A4  
                     l3212 0491                       l2228 0CD7                       l2180 0C4B  
                     l2164 0BCF                       l2172 0C27                       l2156 0BAA  
                     l2148 0B97                       l2092 0AD9                       l2084 0AC9  
                     l2076 0AB0                       l2068 0AA1                       l3204 0877  
                     l3116 1302                       l2260 1280                       l3108 13D9  
                     l3150 1668                       l3142 1654                       l3134 1645  
                     l3126 1637                       l2510 0928                       l2502 0905  
                     l2406 1742                       l3310 0749                       l3302 072C  
                     l3230 04BD                       l3222 04A6                       l3214 0492  
                     l3206 0480                       l2190 0C62                       l2182 0C54  
                     l2174 0C3D                       l2166 0C0D                       l2158 0BAB  
                     l2094 0ADD                       l2086 0ACD                       l2078 0AB8  
                     l3118 130F                       l2262 1286                       l2270 12A7  
                     l3070 15F5                       l3062 15CF                       l3160 168B  
                     l3152 166C                       l3144 165A                       l3136 1649  
                     l3128 163A                       l2520 0951                       l2512 0930  
                     l3320 0768                       l3304 0730                       l3240 04D2  
                     l3232 04BE                       l3224 04AE                       l3216 0497  
                     l3208 0487                       l2192 0C67                       l2184 0C58  
                     l2176 0C42                       l2168 0C13                       l2096 0AE1  
                     l2088 0AD1                       l3400 00BD                       l2272 12B0  
                     l2264 129B                       l2280 13F8                       l2360 14BF  
                     l2352 14B3                       l3080 1628                       l3072 15FE  
                     l3064 15E1                       l3154 167D                       l3146 165D  
                     l3162 1691                       l3138 164E                       l2530 0972  
                     l2522 0955                       l2514 0938                       l2506 090E  
                     l3090 132D                       l3330 07AE                       l3322 0781  
                     l3314 0751                       l3306 0731                       l3250 04ED  
                     l3242 04DA                       l3234 04C3                       l3226 04B3  
                     l3218 049C                       l2186 0C5D                       l2194 0C69  
                     l2098 0AE5                       l3170 0807                       l3410 00DC  
                     l3402 00C3                       l2266 129E                       l2290 140C  
                     l2282 13FB                       l2274 13DD                       l2370 14D8  
                     l2362 14C3                       l2354 14B4                       l3074 1610  
                     l3066 15E4                       l3082 162E                       l3164 1696  
                     l3156 1683                       l3148 1664                       l2540 0994  
                     l2532 0980                       l2524 0956                       l2516 093A  
                     l2508 0920                       l2460 0895                       l2452 0883  
                     l3092 1331                       l3340 07CD                       l3332 07B8  
                     l3316 0756                       l3324 0787                       l3308 0735  
                     l3260 056F                       l3252 04FD                       l3244 04DF  
                     l3236 04C8                       l3228 04B9                       l2188 0C60  
                     l2196 0C6D                       l3180 0833                       l3172 0814  
                     l3420 0201                       l3412 00FD                       l3404 00CC  
                     l2268 12A4                       l2292 1411                       l2284 1400  
                     l2276 13E7                       l2380 14F7                       l2372 14DC  
                     l2364 14C8                       l2356 14B8                       l3076 161E  
                     l3068 15F1                       l3500 0D83                       l3166 169B  
                     l3158 1684                       l2542 099D                       l2550 09B1  
                     l2518 093F                       l2526 095F                       l2534 0984  
                     l2462 089A                       l2470 08AA                       l2454 088A  
                     l2390 16A0                       l3094 1340                       l3086 1324  
                     l3342 07D8                       l3334 07BA                       l3326 0794  
                     l3318 0764                       l3270 05DD                       l3262 058B  
                     l3254 050A                       l3246 04E4                       l3238 04D0  
                     l2198 0C6E                       l2446 12D6                       l3182 083B  
                     l3430 0229                       l3422 0209                       l3414 0103  
                     l3406 00D2                       l2286 1403                       l2278 13EA  
                     l3350 1436                       l2374 14E0                       l2366 14CE  
                     l2382 14FD                       l2358 14BD                       l3078 161F  
                     l3510 0DF1                       l3502 0D8C                       l2552 09B5  
                     l2544 09A1                       l2536 098A                       l2528 0971  
                     l2480 08C2                       l2472 08B2                       l2464 089F  
                     l2456 0890                       l2392 16B6                       l3096 1345  
                     l3088 1326                       l3336 07C8                       l3328 079F  
                     l3280 066D                       l3272 05ED                       l3264 05A7  
                     l3256 0527                       l2448 12DA                       l3192 0849  
                     l3184 083D                       l3176 081D                       l3440 025D  
                     l3432 0231                       l3424 020F                       l3416 0119  
                     l3408 00D7                       l2800 1397                       l2288 1409  
                     l3352 143E                       l2384 1502                       l2376 14EA  
                     l2368 14D1                       l3360 1352                       l3520 0E3D  
                     l3512 0E0A                       l3504 0D98                       l2570 0A06  
                     l2562 09D6                       l2554 09B6                       l2546 09A2  
                     l2538 0992                       l2482 08C7                       l2490 08D7  
                     l2474 08B7                       l2466 08A7                       l2458 0894  
                     l2394 16D2                       l3338 07CC                       l3290 0701  
                     l3282 067D                       l3274 060A                       l3266 05B0  
                     l3258 0543                       l3186 0841                       l3194 085B  
                     l3178 0832                       l3450 0317                       l3442 0273  
                     l3434 0231                       l3418 01E3                       l3426 0213  
                     l2802 139F                       l2810 1463                       l3346 1415  
                     l2386 1507                       l2378 14F0                       l3370 1363  
                     l3362 1353                       l3354 134A                       l3530 0E71  
                     l3522 0E4B                       l3514 0E13                       l3506 0D9D  
                     l2580 0A3A                       l2564 09DB                       l2572 0A0C  
                     l2556 09BA                       l2548 09AB                       l2492 08E7  
                     l2484 08CC                       l2476 08BD                       l2468 08A8  
                     l2396 16DA                       l3292 070F                       l3284 06AA  
                     l3276 0623                       l3268 05C0                       l2740 1760  
                     l3460 0332                       l3452 031D                       l3444 0302  
                     l3436 0236                       l3428 0219                       l3380 0034  
                     l2820 148E                       l2812 1474                       l3348 141A  
                     l3372 1364                       l3364 1357                       l3356 134E  
                     l3540 0EA7                       l3532 0E7D                       l3524 0E53  
                     l3516 0E28                       l3508 0DE9                       l2582 0A42  
                     l2574 0A19                       l2566 09E9                       l2558 09CE  
                     l2494 08F3                       l2486 08D4                       l2478 08C1  
                     l2398 16DE                       l3294 0718                       l3286 06D0  
                     l3278 0640                       l2750 178B                       l2742 1770  
                     l2734 1747                       l3470 0457                       l3462 0353  
                     l3454 0322                       l3446 030A                       l3438 0257  
                     l3390 003C                       l3382 0034                       l2806 128D  
                     l2830 1512                       l2822 149F                       l2814 1479  
                     l3374 1365                       l3366 1358                       l3358 1351  
                     l3550 0F38                       l3542 0EB0                       l3534 0E86  
                     l3526 0E5C                       l3518 0E34                       l2584 0A49  
                     l2576 0A27                       l2568 09ED                       l2496 08F7  
                     l2488 08D5                       l3296 071C                       l3288 06F8  
                     l2760 17BF                       l2752 1792                       l2736 174C  
                     l3472 045F                       l3464 0359                       l3456 0328  
                     l3448 0317                       l3392 0055                       l3384 0036  
                     l2832 151B                       l2824 14A4                       l2816 147F  
                     l2808 145E                       l3480 156A                       l3376 1366  
                     l3368 1360                       l3560 0FEA                       l3552 0F4A  
                     l3544 0EBE                       l3536 0E92                       l3528 0E68  
                     l2586 0A4D                       l2578 0A36                       l3298 071D  
                     l2770 17F2                       l2762 17C3                       l2754 1796  
                     l2746 1779                       l2738 1750                       l3474 0465  
                     l3466 036F                       l3458 032D                       l3394 0094  
                     l3386 0038                       l3378 0021                       l2834 152A  
                     l2826 14AA                       l2818 1488                       l3554 0F85  
                     l3546 0EC5                       l3538 0E9B                       l3490 0D33  
                     l3482 0CE8                       l2588 0A4F                       l2772 17F6  
                     l2764 17CD                       l2756 17A4                       l2748 177E  
                     l3468 0439                       l3476 0469                       l3396 00A1  
                     l3388 003C                       l2780 1269                       l2836 1530  
                     l2828 150C                       l3556 0F97                       l3548 0ECD  
                     l3492 0D3C                       l3484 0D16                       l2774 17F7  
                     l2766 17D7                       l2758 17B4                       l3478 046F  
                     l3398 00AA                       l2790 1376                       l2782 126D  
                     l3558 0FB1                       l3494 0D41                       l3486 0D25  
                     l2768 17ED                       l2792 137B                       l2784 1272  
                     l3496 0D6F                       l3488 0D2A                       l2794 1383  
                     l2778 1264                       l2786 1276                       l3498 0D7E  
                     l2796 138C                       l2788 127B                       l2798 1391  
                     ?_isr 0070                       STR_1 07F1                       STR_2 07F4  
                     STR_3 07F7                       STR_4 07FC                       STR_5 07FA  
                     u2020 12B9                       u2021 12B8                       u2030 12C4  
                     u2031 12C3                       u2200 0AC9                       u2040 12CB  
                     u2201 0AC8                       u2041 12CA                       u2210 0ACD  
                     u2130 0A71                       u2050 12D2                       u2211 0ACC  
                     u2131 0A70                       u2051 12D1                       u3100 08C7  
                     u2300 0B73                       u2220 0B25                       u2140 0A77  
                     u3101 08C6                       u2301 0B72                       u2221 0B24  
                     u2141 0A76                       u3110 08CC                       u2230 0B2E  
                     u2150 0A7C                       u3111 08CB                       u2311 0B85  
                     u2231 0B2C                       u2151 0A7B                       u3200 098A  
                     u3120 08E7                       u2400 0C3D                       u2320 0B97  
                     u2312 0B8C                       u2240 0B2F                       u2160 0A9A  
                     u3201 0989                       u3121 08E6                       u2401 0C3C  
                     u2321 0B96                       u2313 0B93                       u2225 0B21  
                     u2161 0A99                       u3210 0992                       u3130 0905  
                     u2410 0C42                       u2330 0B9B                       u2250 0B45  
                     u2170 0AA5                       u3211 0991                       u3131 0904  
                     u2411 0C41                       u2331 0B9A                       u2251 0B44  
                     u2171 0AA4                       u3300 09ED                       u3140 093F  
                     u3060 0894                       u4100 1331                       u2500 0C85  
                     u2340 0BAA                       u2260 0B54                       u2180 0AAB  
                     u3301 09EC                       u3141 093E                       u3061 0893  
                     u4101 1330                       u2501 0C84                       u2341 0BA9  
                     u2261 0B53                       u2181 0AAA                       u3310 09FC  
                     u3230 09A1                       u3070 089A                       u2510 0C97  
                     u2430 0C58                       u2190 0AB0                       u4030 15E1  
                     u3231 09A0                       u3071 0899                       u2511 0C96  
                     u2431 0C57                       u2191 0AAF                       u4031 15E0  
                     u4200 165A                       u3320 0A19                       u3080 089F  
                     u4120 1345                       u2520 0CA6                       u2440 0C5D  
                     u2360 0BCF                       u2280 0B6A                       u4201 1659  
                     u3321 0A18                       u3225 0996                       u3081 089E  
                     u4121 1344                       u2441 0C5C                       u2425 0C4D  
                     u2361 0BCE                       u2281 0B69                       u3330 0A36  
                     u3250 09B5                       u3170 0955                       u3090 08C1  
                     u2530 0CB5                       u2450 0C67                       u2290 0B6E  
                     u4050 15F5                       u4130 13BB                       u3331 0A35  
                     u3315 09F7                       u3251 09B4                       u3171 0954  
                     u3155 0941                       u3091 08C0                       u4115 1338  
                     u2531 0CB4                       u2451 0C66                       u2371 0BE6  
                     u2363 0BCB                       u2355 0BAD                       u2291 0B6D  
                     u2275 0B57                       u4051 15F4                       u4220 166C  
                     u3340 0A4D                       u3260 09BA                       u2540 0CBE  
                     u2460 0C6D                       u2380 0BFA                       u2372 0BE7  
                     u4300 0841                       u4140 1302                       u4221 166B  
                     u3341 0A4C                       u3325 0A15                       u3261 09B9  
                     u3245 09A4                       u3165 094A                       u2541 0CBD  
                     u2525 0CA1                       u2461 0C6C                       u2381 0BFB  
                     u2373 0BEC                       u4301 0840                       u4141 1301  
                     u4045 15E6                       u3270 09CE                       u3190 0971  
                     u2550 0CC3                       u2470 0C72                       u2390 0C18  
                     u2382 0C00                       u2374 0BED                       u4310 0848  
                     u2630 1286                       u4070 1610                       u4215 165E  
                     u3335 0A32                       u3271 09CD                       u3191 0970  
                     u2551 0CC2                       u2471 0C71                       u2391 0C17  
                     u2383 0C01                       u2375 0BF2                       u4311 0847  
                     u2631 1285                       u4071 160F                       u4135 13B6  
                     u4240 167D                       u3280 09D5                       u4400 049C  
                     u2560 0CD0                       u2480 0C78                       u2376 0BF3  
                     u2640 128C                       u2800 14B8                       u4241 167C  
                     u3281 09D4                       u3185 0958                       u4401 049B  
                     u2561 0CCF                       u2481 0C77                       u2641 128B  
                     u2801 14B7                       u4065 15F7                       u3290 09DB  
                     u4410 04BD                       u2570 0CD5                       u2490 0C7F  
                     u4330 085A                       u4170 131C                       u2810 14C3  
                     u4090 162E                       u4235 166D                       u3291 09DA  
                     u3195 096D                       u4411 04BC                       u2571 0CD4  
                     u2491 0C7E                       u4331 0859                       u4171 131B  
                     u4155 1309                       u2811 14C2                       u4091 162D  
                     u4075 160C                       u4260 1691                       u4180 163E  
                     u2900 16D2                       u4420 04C3                       u2580 0CE6  
                     u4340 0861                       u2820 14CE                       u4261 1690  
                     u4245 1679                       u4181 163D                       u2901 16D1  
                     u4421 04C2                       u2581 0CE5                       u4341 0860  
                     u4325 084A                       u4165 1310                       u2821 14CD  
                     u4085 1620                       u4270 1696                       u4190 1649  
                     u2910 16DE                       u4430 04C8                       u4271 1695  
                     u4255 1685                       u4191 1648                       u2911 16DD  
                     u4511 05CF                       u4431 04C7                       u2655 13ED  
                     u4512 05D6                       u4440 04DF                       u4360 0872  
                     u4280 0814                       u3800 17C3                       u3720 174C  
                     u2840 14E0                       u2921 16ED                       u4601 06EA  
                     u4521 05FC                       u4513 05DD                       u4505 05A9  
                     u4441 04DE                       u4361 0871                       u4281 0813  
                     u3801 17C2                       u3721 174B                       u2841 14DF  
                     u2930 1706                       u2922 16EE                       u4602 06F1  
                     u4522 0603                       u4450 04E4                       u4370 0877  
                     u4290 082B                       u3810 17C9                       u3730 1750  
                     u2850 14EA                       u2931 1705                       u2923 16F3  
                     u4603 06F8                       u4523 060A                       u4451 04E3  
                     u4371 0876                       u4355 0864                       u3811 17C8  
                     u3731 174F                       u2851 14E9                       u2835 14D2  
                     _PEIE 005E                       u2924 16F4                       u4700 0768  
                     u4380 0491                       u3820 17CD                       u3740 1770  
                     u2941 1715                       u2925 16F9                       u4701 0767  
                     u4541 0632                       u4461 0535                       u4381 0490  
                     u3821 17CC                       u3741 176F                       u2950 1740  
                     u2942 1716                       u2926 16FA                       u4710 0777  
                     u4630 071C                       u4542 0639                       u4462 053C  
                     u4390 0497                       u3830 17E2                       u2870 14FD  
                     u2951 173F                       u2943 171B                       u4631 071B  
                     u4615 06FA                       u4551 065F                       u4543 0640  
                     u4535 060C                       u4471 0551                       u4463 0543  
                     u4391 0496                       u4295 0826                       u2871 14FC  
                     u2855 14E6                       u2944 171C                       u4720 0794  
                     u4552 0666                       u4472 0558                       u3840 17F2  
                     u3760 1791                       u4800 00D2                       u2880 1502  
                     u2945 1721                       u4721 0793                       u4625 0711  
                     u4561 068C                       u4553 066D                       u4481 057D  
                     u4473 055F                       u3841 17F1                       u3761 1790  
                     u4801 00D1                       u3905 1496                       u2881 1501  
                     u2865 14F1                       u2946 1722                       u2890 16B6  
                     u4730 07AE                       u4650 0730                       u4570 06B6  
                     u4562 0693                       u4482 0584                       u3850 17F6  
                     u4810 0119                       u2955 173C                       u2891 16B5  
                     u4731 07AD                       u4715 0772                       u4651 072F  
                     u4563 069A                       u4491 0599                       u4483 058B  
                     u3851 17F5                       u3835 17DD                       u3755 1783  
                     u4811 0118                       u4740 07CC                       u4660 0735  
                     u4492 05A0                       u3780 17B3                       u4820 0219  
                     u3860 1397                       u4741 07CB                       u4725 0790  
                     u4661 0734                       u4645 071F                       u4581 06C2  
                     u4493 05A7                       u3781 17B2                       u4821 0218  
                     u3861 1396                       u4670 0749                       u4590 06DE  
                     u4582 06C9                       u4830 0273                       u3870 1463  
                     u4750 1424                       u4735 07AA                       u4671 0748  
                     u4583 06D0                       u4575 06B1                       u3775 17A5  
                     u4831 0272                       u4815 0115                       u3871 1462  
                     u4680 0750                       u4840 0328                       u4760 1448  
                     u4681 074F                       u4841 0327                       u4690 0756  
                     u4850 036F                       u3890 148E                       u4770 145A  
                     u4691 0755                       u4595 06D9                       u3795 17B8  
                     u4851 036E                       u4835 026F                       u3891 148D  
                     u4771 1459                       u4907 0DA5                       u4860 046F  
                     u4780 0055                       u4861 046E                       u4781 0054  
                     u3885 146B                       u4917 0E45                       u4790 00CB  
                     u4855 036B                       u4791 00CA                       u4927 0EB8  
                     u4937 13FD                       u4947 140E                       u4957 1516  
                     u4877 0D1E                       u4967 1525                       u4887 0D49  
                     u4977 1534                       u4897 0D77                       u4987 12AB  
                     _adc0 00C9                       _adc1 00BF          ?_Lcd_Write_String 0077  
                     _cont 00B5                       _main 0CE8                       _full 00AC  
                     _tens 00AF                       btemp 007E              ADC_convert@mu 00E6  
                     start 000C         ??_Lcd_Write_String 0020            ___fldiv@new_exp 0049  
          __end_of_Lcd_Cmd 12B4       __size_of_ADC_convert 0462                      ??_isr 0070  
         ?_I2C_Master_Init 0026           ?_I2C_Master_Read 0072           ?_I2C_Master_Wait 0070  
         ?_I2C_Master_Stop 0070              ___fltol@sign1 0076            __end_of___fladd 0CE8  
                    ?_main 0070            __end_of___fldiv 0A60            __end_of___awdiv 16A0  
          __end_of___awmod 150C            __end_of___flmul 07E1            __end_of___flsub 12FA  
          __end_of___fltol 0883                      _ANSEL 0188            __end_of___lldiv 1637  
          ___awdiv@divisor 0072                      i1l214 0800            ___awdiv@counter 0020  
                    _PORTA 0005                      _PORTB 0006                      _PORTC 0007  
                    _PORTD 0008                      _PORTE 0009    __size_of_Lcd_Set_Cursor 0058  
                    _TRISB 0086                      _TRISC 0087                      _TRISD 0088  
                    _SSPIE 0463                      _SSPIF 0063                      _conv0 00A4  
                    _conv1 00A0                      _count 00A8                      _valor 007B  
                    _setup 134A                      _units 00AE                      pclath 000A  
                    status 0003                      wtemp0 007E           __end_of_Lcd_Init 1569  
         __end_of_Lcd_Port 12D6            __initialization 000F               __end_of_main 1000  
                   ??_main 00E8         __size_of_Lcd_Clear 000D          ?_I2C_Master_Start 0070  
        ?_I2C_Master_Write 0072         ??_I2C_Master_Start 0072         ??_I2C_Master_Write 0074  
         ___awdiv@dividend 0074                     ?_setup 0070                     _ANSELH 0189  
                ??_Lcd_Cmd 0073    __size_of_Lcd_Write_Char 0039                     _SSPADD 0093  
                   _TRISC3 043B                     _TRISC4 043C                     _SSPCON 0014  
                   _SSPBUF 0013           __end_of___xxtofl 1800                     ___flge 16A0  
         __end_of_division 15CF                  ??___fladd 0020                     ___wmul 12FA  
                ??___fldiv 003F                  ??___awdiv 0076                  ??___awmod 0076  
                ??___flmul 0059                  ??___flsub 007A                  ??___fltol 0020  
                ??___lldiv 0020           ___awdiv@quotient 0022            ___awmod@divisor 0072  
          ___awmod@counter 0077         __size_of__Umul8_16 0029                     saved_w 007E  
          ADC_convert@data 00DD            ADC_convert@temp 00D9            Lcd_Set_Cursor@a 0020  
          Lcd_Set_Cursor@b 0076            Lcd_Set_Cursor@y 0022            Lcd_Set_Cursor@z 0021  
               ___flge@ff1 0072                 ___flge@ff2 0076               ___xxtofl@arg 0033  
             ___xxtofl@exp 0032               ___xxtofl@val 0029    __end_of__initialization 001A  
        __end_of_Lcd_Clear 129A                 ___fltol@f1 0072             __pcstackCOMMON 0070  
            __end_of_setup 1376              division@valor 0079             _Lcd_Set_Cursor 145B  
                ?_Lcd_Init 0070                  ?_Lcd_Port 0070                    ??_setup 007A  
               __pbssBANK1 00A0          __end_of__Umul8_16 134A                 __pmaintext 0CE8  
                  ?___flge 0072                    ?___wmul 0025                 __pintentry 0004  
__size_of_Lcd_Write_String 0046     __end_of_Lcd_Set_Cursor 14B3                  ?___xxtofl 0029  
               ??_Lcd_Init 0076                 ??_Lcd_Port 0072                    _SSPCON2 0091  
                  _SSPSTAT 0094                 __stringtab 07E1                  ?_division 0070  
           _Lcd_Write_Char 13DC                    _Lcd_Cmd 129A              ??_ADC_convert 006B  
          __size_of___flge 00A4                    ___fladd 0A60                    ___fldiv 0883  
                  ___awdiv 1637                    ___awmod 14B3                    ___flmul 0480  
                  ___flsub 12D6                    ___fltol 0807                    ___lldiv 15CF  
          __size_of___wmul 0027            ?_Lcd_Set_Cursor 0076                    __ptext1 134A  
                  __ptext2 13A4                    __ptext3 15CF                    __ptext4 1569  
                  __ptext5 14B3                    __ptext6 1415                    __ptext7 13DC  
                  __ptext8 145B                    __ptext9 150C               __size_of_isr 0007  
               ??___xxtofl 002D           ___awmod@dividend 0074   __size_of_I2C_Master_Init 0038  
 __size_of_I2C_Master_Read 002E                    _residuo 007A   __size_of_I2C_Master_Wait 000D  
 __size_of_I2C_Master_Stop 0009                    clrloop0 125D     __end_of_Lcd_Write_Char 1415  
     end_of_initialization 001A                 ??_division 0024  __size_of_I2C_Master_Start 0009  
__size_of_I2C_Master_Write 000A            ___lldiv@divisor 0072            ___lldiv@counter 0025  
         ADC_convert@place 00D7           I2C_Master_Init@c 0026           I2C_Master_Read@a 0072  
                Lcd_Port@a 0072        __end_of_ADC_convert 0480                ___fladd@grs 002B  
            ___xxtofl@sign 0031                  _TRISAbits 0085                  _TRISCbits 0087  
                _TRISEbits 0089                ___fldiv@grs 004B                ___fldiv@rem 0044  
          ?_Lcd_Write_Char 0070          Lcd_Write_String@a 0077          Lcd_Write_String@i 0023  
              ___flmul@grs 0060               ADC_convert@a 00D3               ADC_convert@i 00E2  
             ADC_convert@j 00DB               ADC_convert@x 00DE                  _Lcd_Clear 128D  
           __end_of___flge 1744             __end_of___wmul 1321           _Lcd_Write_String 1415  
      start_initialization 000F                __end_of_isr 0807          __size_of_Lcd_Init 005D  
        __size_of_Lcd_Port 0022          ??_I2C_Master_Init 002A          ??_I2C_Master_Read 0074  
        ??_I2C_Master_Wait 0072          ??_I2C_Master_Stop 0072                _ADC_convert 001E  
               ?_Lcd_Clear 0070                   ??___flge 0020                   ??___wmul 0078  
                __Umul8_16 1321            Lcd_Write_Char@a 0076            Lcd_Write_Char@y 0075  
                ___fladd@a 0076                  ___fladd@b 0072                  ___fldiv@a 0037  
                ___fldiv@b 003B                  ___flmul@a 0055                  ___flmul@b 0051  
              __pbssCOMMON 007A                  ___flsub@a 0037                  ___flsub@b 003B  
                ___latbits 0002              __pcstackBANK0 0020              __pcstackBANK1 00D3  
        __size_of___xxtofl 00BC                   ?_Lcd_Cmd 0070          __size_of_division 0066  
         _I2C_Master_Start 1264           _I2C_Master_Write 1276                  _main$1038 00EC  
         ??_Lcd_Set_Cursor 0077                   ?___fladd 0072                   ?___fldiv 0037  
                 ?___awdiv 0072                   ?___awmod 0072                   ?___flmul 0051  
                 ?___flsub 0037                   ?___fltol 0072                   ?___lldiv 0072  
               ?__Umul8_16 0072                  __pstrings 07E1                  _converted 00B2  
           __size_of_setup 002C          interrupt_function 0004             ___wmul@product 0078  
                clear_ram0 125C                   Lcd_Cmd@a 0075                ??_Lcd_Clear 0076  
               _ADCON0bits 001F                __stringbase 07F0                 _ADCON1bits 009F  
        ___wmul@multiplier 0025           ??_Lcd_Write_Char 0073                _converted02 00B1  
                 _Lcd_Init 150C                   _Lcd_Port 12B4        I2C_Master_Read@temp 0076  
 __end_of_Lcd_Write_String 145B           __size_of_Lcd_Cmd 001A                ??__Umul8_16 0074  
         __size_of___fladd 0288           __size_of___fldiv 01DD           __size_of___awdiv 0069  
         __size_of___awmod 0059           __size_of___flmul 0361           __size_of___flsub 0024  
         __size_of___fltol 007C           __size_of___lldiv 0068         __end_of__stringtab 07F1  
          _I2C_Master_Init 13A4            _I2C_Master_Read 1376                   ___xxtofl 1744  
          _I2C_Master_Wait 1280            _I2C_Master_Stop 126D                   __ptext10 128D  
                 __ptext11 129A                   __ptext20 12FA                   __ptext12 12B4  
                 __ptext21 0807                   __ptext13 1276                   __ptext22 12D6  
                 __ptext14 126D                   __ptext23 0A60                   __ptext15 1264  
                 __ptext24 0480                   __ptext16 1376                   __ptext25 1321  
                 __ptext17 1280                   __ptext26 16A0                   __ptext18 001E  
                 __ptext27 0883                   __ptext19 1744                   __ptext28 1637  
                 __ptext29 0800                   _division 1569              __size_of_main 0318  
                 _hundreds 00B0               ?_ADC_convert 00D3   __end_of_I2C_Master_Start 126D  
 __end_of_I2C_Master_Write 1280         Lcd_Write_Char@temp 0074                   intlevel1 0000  
         ___lldiv@dividend 0076                  stringcode 07EB                 _OSCCONbits 008F  
        ADC_convert@digits 00E4    __end_of_I2C_Master_Init 13DC    __end_of_I2C_Master_Read 13A4  
  __end_of_I2C_Master_Wait 128D    __end_of_I2C_Master_Stop 1276         Lcd_Set_Cursor@temp 0023  
   __Umul8_16@multiplicand 0072                _temperature 00B4           ___lldiv@quotient 0021  
        I2C_Master_Write@d 0072                   stringdir 07EB                   stringtab 07E1  
              _SSPCON2bits 0091              ___fladd@signs 0028               ___fladd@aexp 0029  
             ___fladd@bexp 002A       __Umul8_16@multiplier 0024          __Umul8_16@product 0020  
